
coproc_firmware.elf:     file format elf32-littleriscv
coproc_firmware.elf
architecture: riscv:rv32, flags 0x00000112:
EXEC_P, HAS_SYMS, D_PAGED
start address 0x00028398

Program Header:
0x70000003 off    0x00005206 vaddr 0x00000000 paddr 0x00000000 align 2**0
         filesz 0x00000020 memsz 0x00000000 flags r--
    LOAD off    0x00001000 vaddr 0x00028000 paddr 0x00028000 align 2**12
         filesz 0x00000020 memsz 0x00000020 flags r-x
    LOAD off    0x00001020 vaddr 0x00028020 paddr 0x00028020 align 2**12
         filesz 0x00003070 memsz 0x00003070 flags r-x
    LOAD off    0x00004090 vaddr 0x0002b090 paddr 0x0002c1f4 align 2**12
         filesz 0x00001164 memsz 0x00001164 flags rw-
    LOAD off    0x00000358 vaddr 0x0002d358 paddr 0x0002d358 align 2**12
         filesz 0x00000000 memsz 0x00000178 flags rw-

Sections:
Idx Name          Size      VMA       LMA       File off  Algn
  0 .entry        00000020  00028000  00028000  00001000  2**5
                  CONTENTS, ALLOC, LOAD, READONLY, CODE
  1 .exceptions   00000354  00028020  00028020  00001020  2**2
                  CONTENTS, ALLOC, LOAD, READONLY, CODE
  2 .text         00002a28  00028374  00028374  00001374  2**2
                  CONTENTS, ALLOC, LOAD, READONLY, CODE
  3 .rodata       000002f4  0002ad9c  0002ad9c  00003d9c  2**2
                  CONTENTS, ALLOC, LOAD, READONLY, DATA
  4 .rwdata       00001164  0002b090  0002c1f4  00004090  2**3
                  CONTENTS, ALLOC, LOAD, DATA
  5 .bss          00000178  0002d358  0002d358  00005358  2**3
                  ALLOC
  6 .SRAM         00000000  0002d4d0  0002d4d0  000051f4  2**0
                  CONTENTS
  7 .comment      00000012  00000000  00000000  000051f4  2**0
                  CONTENTS, READONLY
  8 .riscv.attributes 00000020  00000000  00000000  00005206  2**0
                  CONTENTS, READONLY
  9 .debug_aranges 00000198  00000000  00000000  00005228  2**3
                  CONTENTS, READONLY, DEBUGGING, OCTETS
 10 .debug_info   000008ad  00000000  00000000  000053c0  2**0
                  CONTENTS, READONLY, DEBUGGING, OCTETS
 11 .debug_abbrev 00000506  00000000  00000000  00005c6d  2**0
                  CONTENTS, READONLY, DEBUGGING, OCTETS
 12 .debug_line   00000c34  00000000  00000000  00006173  2**0
                  CONTENTS, READONLY, DEBUGGING, OCTETS
 13 .debug_frame  000000dc  00000000  00000000  00006da8  2**2
                  CONTENTS, READONLY, DEBUGGING, OCTETS
 14 .debug_str    000007b3  00000000  00000000  00006e84  2**0
                  CONTENTS, READONLY, DEBUGGING, OCTETS
 15 .debug_ranges 00000020  00000000  00000000  00007638  2**3
                  CONTENTS, READONLY, DEBUGGING, OCTETS
 16 .debug_rnglists 0000006d  00000000  00000000  00007658  2**0
                  CONTENTS, READONLY, DEBUGGING, OCTETS
 17 .debug_line_str 00000320  00000000  00000000  000076c5  2**0
                  CONTENTS, READONLY, DEBUGGING, OCTETS
 18 .debug_loclists 0000011f  00000000  00000000  000079e5  2**0
                  CONTENTS, READONLY, DEBUGGING, OCTETS
SYMBOL TABLE:
00028000 l    d  .entry	00000000 .entry
00028020 l    d  .exceptions	00000000 .exceptions
00028374 l    d  .text	00000000 .text
0002ad9c l    d  .rodata	00000000 .rodata
0002b090 l    d  .rwdata	00000000 .rwdata
0002d358 l    d  .bss	00000000 .bss
0002d4d0 l    d  .SRAM	00000000 .SRAM
00000000 l    d  .comment	00000000 .comment
00000000 l    d  .riscv.attributes	00000000 .riscv.attributes
00000000 l    d  .debug_aranges	00000000 .debug_aranges
00000000 l    d  .debug_info	00000000 .debug_info
00000000 l    d  .debug_abbrev	00000000 .debug_abbrev
00000000 l    d  .debug_line	00000000 .debug_line
00000000 l    d  .debug_frame	00000000 .debug_frame
00000000 l    d  .debug_str	00000000 .debug_str
00000000 l    d  .debug_ranges	00000000 .debug_ranges
00000000 l    d  .debug_rnglists	00000000 .debug_rnglists
00000000 l    d  .debug_line_str	00000000 .debug_line_str
00000000 l    d  .debug_loclists	00000000 .debug_loclists
00000000 l    df *ABS*	00000000 crt0.S.obj
00028494 l       .text	00000000 alt_after_alt_main
00000000 l    df *ABS*	00000000 machine_trap.S.obj
00028020 l       .exceptions	00000000 save_registers
00000000 l    df *ABS*	00000000 alt_irq_handler.c
00000000 l    df *ABS*	00000000 main.c
00000000 l    df *ABS*	00000000 alt_load.c
00028498 l     F .text	00000064 alt_load_section
00000000 l    df *ABS*	00000000 alt_log_printf.c
00000000 l    df *ABS*	00000000 alt_main.c
00000000 l    df *ABS*	00000000 alt_putstr.c
00000000 l    df *ABS*	00000000 alt_tick.c
00000000 l    df *ABS*	00000000 alt_sys_init.c
00000000 l    df *ABS*	00000000 altera_avalon_jtag_uart_init.c
00029584 l     F .text	00000250 altera_avalon_jtag_uart_irq
000297d4 l     F .text	000000bc altera_avalon_jtag_uart_timeout
00000000 l    df *ABS*	00000000 altera_avalon_jtag_uart_write.c
00000000 l    df *ABS*	00000000 alt_log_macro.S.obj
00029b7c l       .text	00000000 tx_next_char
00029bb0 l       .text	00000000 end_tx
00029b88 l       .text	00000000 wait_tx_ready_loop
00000000 l    df *ABS*	00000000 alt_alarm_start.c
00000000 l    df *ABS*	00000000 alt_dcache_flush_all.c
00000000 l    df *ABS*	00000000 alt_icache_flush_all.c
00000000 l    df *ABS*	00000000 alt_iic.c
00000000 l    df *ABS*	00000000 alt_iic_isr_register.c
00000000 l    df *ABS*	00000000 intel_niosv_irq.c
00000000 l    df *ABS*	00000000 mtimer.c
00000000 l    df *ABS*	00000000 stack_protector.c
00000000 l    df *ABS*	00000000 puts.c
00000000 l    df *ABS*	00000000 memcpy-asm.S.o
00000000 l    df *ABS*	00000000 strlen.c
00000000 l    df *ABS*	00000000 signal.c
0002d450 l     O .bss	00000080 _sig_func
00000000 l    df *ABS*	00000000 save-restore.o
00000000 l    df *ABS*	00000000 muldi3.o
00000000 l    df *ABS*	00000000 div.o
00000000 l    df *ABS*	00000000 alt_io_redirect.c
0002a5ac l     F .text	00000048 putc_wrapper
0002a5f4 l     F .text	00000070 getc_wrapper
0002c168 l     O .rwdata	00000014 __stdio
0002a664 l     F .text	000000dc alt_open_fd
00000000 l    df *ABS*	00000000 alt_open.c
00000000 l    df *ABS*	00000000 alt_read.c
00000000 l    df *ABS*	00000000 alt_release_fd.c
00000000 l    df *ABS*	00000000 alt_write.c
00000000 l    df *ABS*	00000000 altera_avalon_jtag_uart_read.c
00000000 l    df *ABS*	00000000 alt_dev.c
0002aba0 l     F .text	0000002c alt_dev_null_write
00000000 l    df *ABS*	00000000 alt_dev_llist_insert.c
00000000 l    df *ABS*	00000000 errno.c
0002d360 g     O .bss	00000004 alt_instruction_exception_handler
0002902c g     F .text	00000120 alt_main
0002d3a0 g     O .bss	00000080 alt_irq
0002c1f4 g       *ABS*	00000000 __flash_rwdata_start
0002d4d0 g       *ABS*	00000000 __alt_heap_start
0002c9d4 g       *ABS*	00000000 __global_pointer$
0002b084 g     O .rodata	00000004 stdout
0002a428 g     F .text	0000004c .hidden __riscv_save_8
0002b090 g       *ABS*	00000000 __tls_base
0002a4bc g     F .text	00000018 .hidden __riscv_restore_3
00028df0 g     F .text	0000005c alt_log_jtag_uart_isr_proc
000280c0 g     F .exceptions	00000028 is_ecc_handler_present
0002a494 g     F .text	00000040 .hidden __riscv_restore_10
0002d398 g     O .bss	00000004 __stack_chk_guard
0002a428 g     F .text	0000004c .hidden __riscv_save_11
0002d364 g     O .bss	00000001 alt_log_write_on_flag
0002914c g     F .text	00000050 alt_putstr
0002d367 g     O .bss	00000001 alt_log_jtag_uart_isr_on_flag
00028000 g     F .entry	00000004 __reset
00028020 g       *ABS*	00000000 __flash_exceptions_start
0002d39c g     O .bss	00000004 errno
0002d420 g     O .bss	00000011 alt_log_write_buf
0002d378 g     O .bss	00000004 alt_argv
0002a4bc g     F .text	00000018 .hidden __riscv_restore_2
0002c1a4 g     O .rwdata	00000030 alt_fd_list
0002b0ac g     O .rwdata	0000001d alt_log_msg_alt_main
0002d366 g     O .bss	00000001 alt_log_jtag_uart_alarm_on_flag
0002a378 g     F .text	00000024 memcpy
0002a190 g     F .text	000000b0 alt_niosv_timer_sc_isr
0002a740 g     F .text	00000078 alt_io_redirect
0002a310 g     F .text	00000068 puts
0002a500 g     F .text	00000048 .hidden __hidden___udivsi3
0002a974 g     F .text	0000022c altera_avalon_jtag_uart_read
0002a500 g     F .text	00000048 .hidden __udivsi3
000281fc g     F .exceptions	00000178 handle_trap
0002a418 g     F .text	0000005c .hidden __riscv_save_12
00028fa4 g     F .text	00000088 alt_log_system_clock
0002a494 g     F .text	00000040 .hidden __riscv_restore_11
00028ba0 g     F .text	000000a4 alt_log_printf_proc
0002a474 g     F .text	00000018 .hidden __riscv_save_1
0002d368 g     O .bss	00000001 alt_log_jtag_uart_startup_info_on_flag
0002a4bc g     F .text	00000018 .hidden __riscv_restore_0
0002c1f0 g     O .rwdata	00000004 alt_max_fd
0002a444 g     F .text	00000030 .hidden __riscv_save_7
0002d438 g     O .bss	00000018 alt_log_jtag_uart_alarm_1
0002a2bc g     F .text	00000034 __stack_chk_init
0002a4a8 g     F .text	0000002c .hidden __riscv_restore_5
0002d4d0 g       *ABS*	00000000 __bss_end
00029dac g     F .text	0000017c alt_iic_isr_register
00029234 g     F .text	00000160 alt_tick
0002d370 g     O .bss	00000004 alt_system_clock_in_sec
00028da8 g     F .text	00000048 alt_log_jtag_uart_startup_info
0002a2f0  w    F .text	00000020 __stack_chk_fail
0002b090 g       *ABS*	00000000 __tbss_start
0002a240 g     F .text	0000007c alt_niosv_mtimecmp_interrupt_init
0002919c g     F .text	00000098 alt_alarm_stop
0002d365 g     O .bss	00000001 alt_log_sys_clk_on_flag
0002a4a8 g     F .text	0000002c .hidden __riscv_restore_6
00028108 g     F .exceptions	000000f4 alt_irq_handler
00028634 g     F .text	0000056c alt_log_private_printf
0002c17c g     O .rwdata	00000028 alt_dev_null
0002b090 g     O .rwdata	00000019 alt_log_msg_bss
0002a008 g     F .text	00000080 alt_niosv_mtime_get
00029d20 g     F .text	0000001c alt_dcache_flush_all
000280e8 g     F .exceptions	00000020 break_operation
0002c1f4 g       *ABS*	00000000 __ram_rwdata_end
0002c1e8 g     O .rwdata	00000008 alt_dev_list
0002a8d0 g     F .text	000000a4 write
00029fe4 g     F .text	00000024 alt_timestamp_freq
0002b090 g       *ABS*	00000000 __ram_rodata_end
0002a428 g     F .text	0000004c .hidden __riscv_save_9
0002a548 g     F .text	00000010 .hidden __umodsi3
0002a444 g     F .text	00000030 .hidden __riscv_save_4
0002d4d0 g       *ABS*	00000000 end
0002abcc g     F .text	00000038 alt_dev_reg
0002857c g     F .text	00000058 alt_log_txchar
00029450 g     F .text	00000134 altera_avalon_jtag_uart_init
0002e400 g       *ABS*	00000000 __alt_stack_pointer
000298fc g     F .text	00000280 altera_avalon_jtag_uart_write
0002b08c g     O .rodata	00000004 stdin
0002a474 g     F .text	00000018 .hidden __riscv_save_3
00028398 g     F .text	00000100 _start
0002d380 g     O .bss	00000004 _alt_tick_rate
0002d388 g     O .bss	00000008 _alt_nticks
0002a7f0 g     F .text	0000006c read
0002a104 g     F .text	0000008c alt_niosv_mtimecmp_get
000293cc g     F .text	00000084 alt_sys_init
0002b090 g       *ABS*	00000000 __tdata_source
00029b7c g       .text	00000000 tx_log_str
00029890 g     F .text	0000006c altera_avalon_jtag_uart_close
0002a2f0 g     F .text	00000020 __stack_chk_fail_weak
0002a4d4 g     F .text	00000024 .hidden __mulsi3
0002b090 g       *ABS*	00000000 __ram_rwdata_start
0002ad9c g       *ABS*	00000000 __ram_rodata_start
0002d390 g     O .bss	00000008 alt_niosv_timestamp_offset
0002c1d4 g     O .rwdata	00000004 alt_log_boot_on_flag
0002d35c g     O .bss	00000004 alt_niosv_timer_interrupt_handler
00028cc8 g     F .text	000000e0 alt_log_jtag_uart_print_control_reg
0002d4d0 g       *ABS*	00000000 __alt_stack_base
0002a428 g     F .text	0000004c .hidden __riscv_save_10
0002ac04 g     F .text	0000009c alt_dev_llist_insert
0002a4a8 g     F .text	0000002c .hidden __riscv_restore_4
0002a494 g     F .text	00000040 .hidden __riscv_restore_8
0002a444 g     F .text	00000030 .hidden __riscv_save_6
0002d358 g       *ABS*	00000000 __bss_start
0002b090 g       *ABS*	00000000 __tdata_start
0002b090 g       *ABS*	00000000 __tdata_end
0002a494 g     F .text	00000040 .hidden __riscv_restore_9
0002a4a8 g     F .text	0000002c .hidden __riscv_restore_7
00028374 g     F .text	00000024 main
0002d37c g     O .bss	00000004 alt_envp
0002e400 g       *ABS*	00000000 __alt_heap_limit
00029f4c g     F .text	00000040 alt_timestamp_start
00028c44 g     F .text	00000084 altera_avalon_jtag_uart_report_log
0002a4f8 g     F .text	00000084 .hidden __divsi3
0002b100 g     O .rwdata	0000002a alt_log_msg_cache
0002e400 g       *ABS*	00000000 __heap_end
0002ad9c g       *ABS*	00000000 __flash_rodata_start
00029394 g     F .text	00000038 alt_irq_init
0002a85c g     F .text	00000074 alt_release_fd
0002b0cc g     O .rwdata	00000031 alt_log_msg_stackpointer
0002b088 g     O .rodata	00000004 stderr
0002d374 g     O .bss	00000004 alt_argc
0002c1e0 g     O .rwdata	00000008 alt_fs_list
0002d4d0 g       *ABS*	00000000 __heap_start
0002a474 g     F .text	00000018 .hidden __riscv_save_2
00028020 g       *ABS*	00000000 __ram_exceptions_start
00029f8c g     F .text	00000058 alt_timestamp
0002d36c g     O .bss	00000004 alt_log_sys_clk_count
00028e4c g     F .text	00000158 alt_log_write
00029d58 g     F .text	00000054 alt_ic_isr_register
0002a444 g     F .text	00000030 .hidden __riscv_save_5
00028020 g     F .exceptions	00000000 trap_vector
0002c1f4 g       *ABS*	00000000 _edata
0002d4d0 g       *ABS*	00000000 _end
00028374 g       *ABS*	00000000 __ram_exceptions_end
00029f28 g     F .text	00000024 intel_niosv_irq_init
00028004 g       .entry	00000000 exit
0002a57c g     F .text	00000030 .hidden __modsi3
0002e400 g       *ABS*	00000000 __alt_data_end
0002b090 g       *ABS*	00000000 __tbss_end
0002a48c g     F .text	00000048 .hidden __riscv_restore_12
0002a474 g     F .text	00000018 .hidden __riscv_save_0
00028004 g       .entry	00000000 _exit
0002b130 g     O .rwdata	00001038 DEBUG_JTAG
00029bb4 g     F .text	0000016c alt_alarm_start
0002a39c g     F .text	0000001c strlen
0002a7b8 g     F .text	00000038 open
00028000 g       *ABS*	00000000 __alt_mem_SRAM
00029d3c g     F .text	0000001c alt_icache_flush_all
0002a088 g     F .text	0000007c alt_niosv_mtimecmp_set
0002a4bc g     F .text	00000018 .hidden __riscv_restore_1
0002c1d8 g     O .rwdata	00000008 alt_alarm_list
000285d4 g     F .text	00000060 alt_log_repchar
000284fc g     F .text	00000080 alt_load
0002d358 g     O .bss	00000004 alt_niosv_software_interrupt_handler
0002a3b8 g     F .text	00000060 raise



Disassembly of section .entry:

00028000 <__reset>:
 * Jump to the _start entry point in the .text section if reset code
 * is allowed or if optimizing for RTL simulation.
 */

    /* Jump to the _start entry point in the .text section. */
    tail _start
   28000:	3980006f          	j	28398 <_start>

00028004 <_exit>:
	...

Disassembly of section .exceptions:

00028020 <trap_vector>:
    /* Save caller-saved registers on the stack */

#if __riscv_flen == 32 // rv32if
    addi sp, sp, -36 * 4
#elif ALT_CPU_NUM_GPR == 32 // rv32i
	addi sp, sp, -16 * 4
   28020:	fc010113          	add	sp,sp,-64
#else // rv32e (16-bit)
	addi sp, sp, -10 * 4
#endif

    /* rv32e (16-bit), rv32i and rv32if */
    sw ra,  0 * 4(sp)
   28024:	00112023          	sw	ra,0(sp)
    sw t0,  1 * 4(sp)
   28028:	00512223          	sw	t0,4(sp)
    sw t1,  2 * 4(sp)
   2802c:	00612423          	sw	t1,8(sp)
    sw t2,  3 * 4(sp)
   28030:	00712623          	sw	t2,12(sp)
    sw a0,  4 * 4(sp)
   28034:	00a12823          	sw	a0,16(sp)
    sw a1,  5 * 4(sp)
   28038:	00b12a23          	sw	a1,20(sp)
    sw a2,  6 * 4(sp)
   2803c:	00c12c23          	sw	a2,24(sp)
    sw a3,  7 * 4(sp)
   28040:	00d12e23          	sw	a3,28(sp)
    sw a4,  8 * 4(sp)
   28044:	02e12023          	sw	a4,32(sp)
    sw a5,  9 * 4(sp)
   28048:	02f12223          	sw	a5,36(sp)

    /* rv32i and rv32if */
#if ALT_CPU_NUM_GPR == 32 
    sw a6, 10 * 4(sp)
   2804c:	03012423          	sw	a6,40(sp)
    sw a7, 11 * 4(sp)
   28050:	03112623          	sw	a7,44(sp)
    sw t3, 12 * 4(sp)
   28054:	03c12823          	sw	t3,48(sp)
    sw t4, 13 * 4(sp)
   28058:	03d12a23          	sw	t4,52(sp)
    sw t5, 14 * 4(sp)
   2805c:	03e12c23          	sw	t5,56(sp)
    sw t6, 15 * 4(sp)
   28060:	03f12e23          	sw	t6,60(sp)
    fsw fa6, 34 * 4(sp)
    fsw fa7, 35 * 4(sp)
#endif
   
    /* Call handle_trap to dispatch the correct handler, if available */
    csrr a0, mcause
   28064:	34202573          	csrr	a0,mcause
    csrr a1, mepc
   28068:	341025f3          	csrr	a1,mepc
    csrr a2, mtval
   2806c:	34302673          	csrr	a2,mtval
    jal handle_trap
   28070:	18c000ef          	jal	281fc <handle_trap>
    csrw mepc, a0
   28074:	34151073          	csrw	mepc,a0

    /* Restore caller-saved registers */

    /* rv32e (16-bit), rv32i and rv32if */
    lw ra,  0 * 4(sp)
   28078:	00012083          	lw	ra,0(sp)
    lw t0,  1 * 4(sp)
   2807c:	00412283          	lw	t0,4(sp)
    lw t1,  2 * 4(sp)
   28080:	00812303          	lw	t1,8(sp)
    lw t2,  3 * 4(sp)
   28084:	00c12383          	lw	t2,12(sp)
    lw a0,  4 * 4(sp)
   28088:	01012503          	lw	a0,16(sp)
    lw a1,  5 * 4(sp)
   2808c:	01412583          	lw	a1,20(sp)
    lw a2,  6 * 4(sp)
   28090:	01812603          	lw	a2,24(sp)
    lw a3,  7 * 4(sp)
   28094:	01c12683          	lw	a3,28(sp)
    lw a4,  8 * 4(sp)
   28098:	02012703          	lw	a4,32(sp)
    lw a5,  9 * 4(sp)
   2809c:	02412783          	lw	a5,36(sp)

    /* rv32i and rv32if */
#if ALT_CPU_NUM_GPR == 32	
    lw a6, 10 * 4(sp)
   280a0:	02812803          	lw	a6,40(sp)
    lw a7, 11 * 4(sp)
   280a4:	02c12883          	lw	a7,44(sp)
    lw t3, 12 * 4(sp)
   280a8:	03012e03          	lw	t3,48(sp)
    lw t4, 13 * 4(sp)
   280ac:	03412e83          	lw	t4,52(sp)
    lw t5, 14 * 4(sp)
   280b0:	03812f03          	lw	t5,56(sp)
    lw t6, 15 * 4(sp)
   280b4:	03c12f83          	lw	t6,60(sp)
#endif

#if __riscv_flen == 32 // rv32if
    addi sp, sp, 36 * 4
#elif ALT_CPU_NUM_GPR == 32 // rv32i
	addi sp, sp, 16 * 4
   280b8:	04010113          	add	sp,sp,64
    lw s0, 0(sp)
    lw s1, 4(sp)
    addi sp, sp, 8
#endif

    mret
   280bc:	30200073          	mret

000280c0 <is_ecc_handler_present>:
   280c0:	fd010113          	add	sp,sp,-48
   280c4:	02812623          	sw	s0,44(sp)
   280c8:	03010413          	add	s0,sp,48
   280cc:	fca42e23          	sw	a0,-36(s0)
   280d0:	fe042623          	sw	zero,-20(s0)
   280d4:	fec42783          	lw	a5,-20(s0)
   280d8:	00078513          	mv	a0,a5
   280dc:	02c12403          	lw	s0,44(sp)
   280e0:	03010113          	add	sp,sp,48
   280e4:	00008067          	ret

000280e8 <break_operation>:
   280e8:	ff010113          	add	sp,sp,-16
   280ec:	00812623          	sw	s0,12(sp)
   280f0:	01010413          	add	s0,sp,16
   280f4:	00100073          	ebreak
   280f8:	00000013          	nop
   280fc:	00c12403          	lw	s0,12(sp)
   28100:	01010113          	add	sp,sp,16
   28104:	00008067          	ret

00028108 <alt_irq_handler>:
   28108:	fd010113          	add	sp,sp,-48
   2810c:	02112623          	sw	ra,44(sp)
   28110:	02812423          	sw	s0,40(sp)
   28114:	03010413          	add	s0,sp,48
   28118:	00000013          	nop
   2811c:	344027f3          	csrr	a5,mip
   28120:	fef42023          	sw	a5,-32(s0)
   28124:	304027f3          	csrr	a5,mie
   28128:	fef42223          	sw	a5,-28(s0)
   2812c:	fe042703          	lw	a4,-32(s0)
   28130:	fe442783          	lw	a5,-28(s0)
   28134:	00f777b3          	and	a5,a4,a5
   28138:	0107d793          	srl	a5,a5,0x10
   2813c:	fcf42a23          	sw	a5,-44(s0)
   28140:	fc042e23          	sw	zero,-36(s0)
   28144:	00100793          	li	a5,1
   28148:	fcf42c23          	sw	a5,-40(s0)
   2814c:	fd442703          	lw	a4,-44(s0)
   28150:	fd842783          	lw	a5,-40(s0)
   28154:	00f777b3          	and	a5,a4,a5
   28158:	06078263          	beqz	a5,281bc <alt_irq_handler+0xb4>
   2815c:	0002d7b7          	lui	a5,0x2d
   28160:	3a078713          	add	a4,a5,928 # 2d3a0 <alt_irq>
   28164:	fdc42783          	lw	a5,-36(s0)
   28168:	00379793          	sll	a5,a5,0x3
   2816c:	00f707b3          	add	a5,a4,a5
   28170:	0007a703          	lw	a4,0(a5)
   28174:	0002d7b7          	lui	a5,0x2d
   28178:	3a078693          	add	a3,a5,928 # 2d3a0 <alt_irq>
   2817c:	fdc42783          	lw	a5,-36(s0)
   28180:	00379793          	sll	a5,a5,0x3
   28184:	00f687b3          	add	a5,a3,a5
   28188:	0047a783          	lw	a5,4(a5)
   2818c:	00078513          	mv	a0,a5
   28190:	000700e7          	jalr	a4
   28194:	00000013          	nop
   28198:	344027f3          	csrr	a5,mip
   2819c:	fef42423          	sw	a5,-24(s0)
   281a0:	304027f3          	csrr	a5,mie
   281a4:	fef42623          	sw	a5,-20(s0)
   281a8:	fe842703          	lw	a4,-24(s0)
   281ac:	fec42783          	lw	a5,-20(s0)
   281b0:	00f777b3          	and	a5,a4,a5
   281b4:	0107d793          	srl	a5,a5,0x10
   281b8:	0200006f          	j	281d8 <alt_irq_handler+0xd0>
   281bc:	fd842783          	lw	a5,-40(s0)
   281c0:	00179793          	sll	a5,a5,0x1
   281c4:	fcf42c23          	sw	a5,-40(s0)
   281c8:	fdc42783          	lw	a5,-36(s0)
   281cc:	00178793          	add	a5,a5,1
   281d0:	fcf42e23          	sw	a5,-36(s0)
   281d4:	f79ff06f          	j	2814c <alt_irq_handler+0x44>
   281d8:	fcf42a23          	sw	a5,-44(s0)
   281dc:	fd442783          	lw	a5,-44(s0)
   281e0:	f60790e3          	bnez	a5,28140 <alt_irq_handler+0x38>
   281e4:	00000013          	nop
   281e8:	00000013          	nop
   281ec:	02c12083          	lw	ra,44(sp)
   281f0:	02812403          	lw	s0,40(sp)
   281f4:	03010113          	add	sp,sp,48
   281f8:	00008067          	ret

000281fc <handle_trap>:
   281fc:	fd010113          	add	sp,sp,-48
   28200:	02112623          	sw	ra,44(sp)
   28204:	02812423          	sw	s0,40(sp)
   28208:	03010413          	add	s0,sp,48
   2820c:	fca42e23          	sw	a0,-36(s0)
   28210:	fcb42c23          	sw	a1,-40(s0)
   28214:	fcc42a23          	sw	a2,-44(s0)
   28218:	fdc42703          	lw	a4,-36(s0)
   2821c:	800007b7          	lui	a5,0x80000
   28220:	00f777b3          	and	a5,a4,a5
   28224:	fef42223          	sw	a5,-28(s0)
   28228:	fdc42703          	lw	a4,-36(s0)
   2822c:	800007b7          	lui	a5,0x80000
   28230:	fff78793          	add	a5,a5,-1 # 7fffffff <__alt_data_end+0x7ffd1bff>
   28234:	00f777b3          	and	a5,a4,a5
   28238:	fef42423          	sw	a5,-24(s0)
   2823c:	fe442783          	lw	a5,-28(s0)
   28240:	0a078663          	beqz	a5,282ec <handle_trap+0xf0>
   28244:	fe842703          	lw	a4,-24(s0)
   28248:	00300793          	li	a5,3
   2824c:	04f70063          	beq	a4,a5,2828c <handle_trap+0x90>
   28250:	fe842703          	lw	a4,-24(s0)
   28254:	00700793          	li	a5,7
   28258:	06f71263          	bne	a4,a5,282bc <handle_trap+0xc0>
   2825c:	0002d7b7          	lui	a5,0x2d
   28260:	35c7a783          	lw	a5,860(a5) # 2d35c <alt_niosv_timer_interrupt_handler>
   28264:	0e078663          	beqz	a5,28350 <handle_trap+0x154>
   28268:	00000013          	nop
   2826c:	0002d7b7          	lui	a5,0x2d
   28270:	35c7a783          	lw	a5,860(a5) # 2d35c <alt_niosv_timer_interrupt_handler>
   28274:	fd442603          	lw	a2,-44(s0)
   28278:	fd842583          	lw	a1,-40(s0)
   2827c:	fdc42503          	lw	a0,-36(s0)
   28280:	000780e7          	jalr	a5
   28284:	00000013          	nop
   28288:	0c80006f          	j	28350 <handle_trap+0x154>
   2828c:	0002d7b7          	lui	a5,0x2d
   28290:	3587a783          	lw	a5,856(a5) # 2d358 <alt_niosv_software_interrupt_handler>
   28294:	0c078263          	beqz	a5,28358 <handle_trap+0x15c>
   28298:	00000013          	nop
   2829c:	0002d7b7          	lui	a5,0x2d
   282a0:	3587a783          	lw	a5,856(a5) # 2d358 <alt_niosv_software_interrupt_handler>
   282a4:	fd442603          	lw	a2,-44(s0)
   282a8:	fd842583          	lw	a1,-40(s0)
   282ac:	fdc42503          	lw	a0,-36(s0)
   282b0:	000780e7          	jalr	a5
   282b4:	00000013          	nop
   282b8:	0a00006f          	j	28358 <handle_trap+0x15c>
   282bc:	fe842703          	lw	a4,-24(s0)
   282c0:	00f00793          	li	a5,15
   282c4:	00e7f663          	bgeu	a5,a4,282d0 <handle_trap+0xd4>
   282c8:	e41ff0ef          	jal	28108 <alt_irq_handler>
   282cc:	0900006f          	j	2835c <handle_trap+0x160>
   282d0:	fd442683          	lw	a3,-44(s0)
   282d4:	fd842603          	lw	a2,-40(s0)
   282d8:	fe842583          	lw	a1,-24(s0)
   282dc:	0002b7b7          	lui	a5,0x2b
   282e0:	db078513          	add	a0,a5,-592 # 2adb0 <__flash_rodata_start+0x14>
   282e4:	0bd000ef          	jal	28ba0 <alt_log_printf_proc>
   282e8:	0740006f          	j	2835c <handle_trap+0x160>
   282ec:	0002d7b7          	lui	a5,0x2d
   282f0:	3607a783          	lw	a5,864(a5) # 2d360 <alt_instruction_exception_handler>
   282f4:	04078263          	beqz	a5,28338 <handle_trap+0x13c>
   282f8:	0002d7b7          	lui	a5,0x2d
   282fc:	3607a783          	lw	a5,864(a5) # 2d360 <alt_instruction_exception_handler>
   28300:	fe842703          	lw	a4,-24(s0)
   28304:	fd442603          	lw	a2,-44(s0)
   28308:	fd842583          	lw	a1,-40(s0)
   2830c:	00070513          	mv	a0,a4
   28310:	000780e7          	jalr	a5
   28314:	fea42623          	sw	a0,-20(s0)
   28318:	fec42783          	lw	a5,-20(s0)
   2831c:	00078863          	beqz	a5,2832c <handle_trap+0x130>
   28320:	fd842783          	lw	a5,-40(s0)
   28324:	00478793          	add	a5,a5,4
   28328:	0080006f          	j	28330 <handle_trap+0x134>
   2832c:	fd842783          	lw	a5,-40(s0)
   28330:	fcf42c23          	sw	a5,-40(s0)
   28334:	0280006f          	j	2835c <handle_trap+0x160>
   28338:	fe842503          	lw	a0,-24(s0)
   2833c:	d85ff0ef          	jal	280c0 <is_ecc_handler_present>
   28340:	00050793          	mv	a5,a0
   28344:	00079c63          	bnez	a5,2835c <handle_trap+0x160>
   28348:	da1ff0ef          	jal	280e8 <break_operation>
   2834c:	0100006f          	j	2835c <handle_trap+0x160>
   28350:	00000013          	nop
   28354:	0080006f          	j	2835c <handle_trap+0x160>
   28358:	00000013          	nop
   2835c:	fd842783          	lw	a5,-40(s0)
   28360:	00078513          	mv	a0,a5
   28364:	02c12083          	lw	ra,44(sp)
   28368:	02812403          	lw	s0,40(sp)
   2836c:	03010113          	add	sp,sp,48
   28370:	00008067          	ret

Disassembly of section .text:

00028374 <main>:
   28374:	ff010113          	add	sp,sp,-16
   28378:	00112623          	sw	ra,12(sp)
   2837c:	00812423          	sw	s0,8(sp)
   28380:	01010413          	add	s0,sp,16
   28384:	0002b7b7          	lui	a5,0x2b
   28388:	d9c78513          	add	a0,a5,-612 # 2ad9c <__flash_rodata_start>
   2838c:	5c1000ef          	jal	2914c <alt_putstr>
   28390:	00000013          	nop
   28394:	ffdff06f          	j	28390 <main+0x1c>

00028398 <_start>:
    .type _start, @function
_start:
#if ALT_CPU_HAS_CSR_SUPPORT
    /* assume that we are in machine mode on startup */
    /* setup trap to catch anything that goes wrong early in the boot process */
    la t0, trap_vector
   28398:	00000297          	auipc	t0,0x0
   2839c:	c8828293          	add	t0,t0,-888 # 28020 <trap_vector>
    csrw mtvec, t0
   283a0:	30529073          	csrw	mtvec,t0

    /* disable all interrupt */
    li t0, 0x88
   283a4:	08800293          	li	t0,136
    csrc mstatus, t0
   283a8:	3002b073          	csrc	mstatus,t0
    csrw mie, zero
   283ac:	30401073          	csrw	mie,zero
    csrw mip, zero
   283b0:	34401073          	csrw	mip,zero
#endif /* Initialize Data Cache */
#endif /* ALT_SIM_OPTIMIZE */

    .option push
    .option norelax
    la gp, __global_pointer$
   283b4:	00004197          	auipc	gp,0x4
   283b8:	62018193          	add	gp,gp,1568 # 2c9d4 <__global_pointer$>
    .option pop

    /* Log that the stack pointer is about to be setup. */
#ifdef ALT_LOG_ENABLE
    ALT_LOG_PUTS(alt_log_msg_stackpointer)
   283bc:	00004597          	auipc	a1,0x4
   283c0:	e1858593          	add	a1,a1,-488 # 2c1d4 <alt_log_boot_on_flag>
   283c4:	0005a503          	lw	a0,0(a1)
   283c8:	00050863          	beqz	a0,283d8 <_start+0x40>
   283cc:	00003517          	auipc	a0,0x3
   283d0:	d0050513          	add	a0,a0,-768 # 2b0cc <alt_log_msg_stackpointer>
   283d4:	7a8010ef          	jal	29b7c <tx_log_str>

    /*
     * Now that the caches are initialized, set up the stack pointer and global pointer.
     * The values provided by the linker are assumed to be correctly aligned.
     */
    la sp, __alt_stack_pointer
   283d8:	00006117          	auipc	sp,0x6
   283dc:	02810113          	add	sp,sp,40 # 2e400 <__alt_data_end>
 * region. The linker script guarantees that these values are word aligned.
 */
#ifndef ALT_SIM_OPTIMIZE
    /* Log that the BSS is about to be cleared. */
#ifdef ALT_LOG_ENABLE
    ALT_LOG_PUTS(alt_log_msg_bss)
   283e0:	00004597          	auipc	a1,0x4
   283e4:	df458593          	add	a1,a1,-524 # 2c1d4 <alt_log_boot_on_flag>
   283e8:	0005a503          	lw	a0,0(a1)
   283ec:	00050863          	beqz	a0,283fc <_start+0x64>
   283f0:	00003517          	auipc	a0,0x3
   283f4:	ca050513          	add	a0,a0,-864 # 2b090 <alt_log_msg_bss>
   283f8:	784010ef          	jal	29b7c <tx_log_str>
#endif /* ALT_LOG_ENABLE */

    la t1, __bss_start
   283fc:	00005317          	auipc	t1,0x5
   28400:	f5c30313          	add	t1,t1,-164 # 2d358 <alt_niosv_software_interrupt_handler>
    la t2, __bss_end
   28404:	00005397          	auipc	t2,0x5
   28408:	0cc38393          	add	t2,t2,204 # 2d4d0 <__alt_heap_start>
0:
    sw zero, (t1)
   2840c:	00032023          	sw	zero,0(t1)
    addi t1, t1, 4
   28410:	00430313          	add	t1,t1,4
    bltu t1, t2, 0b
   28414:	fe736ce3          	bltu	t1,t2,2840c <_start+0x74>
/*
 * The alt_load() facility is normally used when there is no bootloader.
 * It copies some sections into RAM so it acts like a mini-bootloader.
 */
#ifdef CALL_ALT_LOAD
    call alt_load
   28418:	0e4000ef          	jal	284fc <alt_load>
 */
#ifndef ALT_SIM_OPTIMIZE
.globl __tbss_start
.globl __tbss_end

    la t1, __tbss_start
   2841c:	00003317          	auipc	t1,0x3
   28420:	c7430313          	add	t1,t1,-908 # 2b090 <alt_log_msg_bss>
    la t2, __tbss_end
   28424:	00003397          	auipc	t2,0x3
   28428:	c6c38393          	add	t2,t2,-916 # 2b090 <alt_log_msg_bss>
    
    // Check if we need to skip this (if .tbss is empty)
    bgeu t1, t2, 1f
   2842c:	00737863          	bgeu	t1,t2,2843c <_start+0xa4>
0:
    sw zero, (t1)
   28430:	00032023          	sw	zero,0(t1)
    addi t1, t1, 4
   28434:	00430313          	add	t1,t1,4
    bltu t1, t2, 0b
   28438:	fe736ce3          	bltu	t1,t2,28430 <_start+0x98>
// Copy tdata to tdata golden source location
.globl __tdata_start
.globl __tdata_end
.globl __tdata_source

    la t0, __tdata_start
   2843c:	00003297          	auipc	t0,0x3
   28440:	c5428293          	add	t0,t0,-940 # 2b090 <alt_log_msg_bss>
    la t1, __tdata_end
   28444:	00003317          	auipc	t1,0x3
   28448:	c4c30313          	add	t1,t1,-948 # 2b090 <alt_log_msg_bss>
    la t2, __tdata_source
   2844c:	00003397          	auipc	t2,0x3
   28450:	c4438393          	add	t2,t2,-956 # 2b090 <alt_log_msg_bss>

    // Check if we need to skip this (if .tdata is empty)
    bgeu t0, t1, 1f
   28454:	0062fc63          	bgeu	t0,t1,2846c <_start+0xd4>
0:
    lw s1, (t0)
   28458:	0002a483          	lw	s1,0(t0)
    sw s1, (t2)
   2845c:	0093a023          	sw	s1,0(t2)
    addi t0, t0, 4
   28460:	00428293          	add	t0,t0,4
    addi t2, t2, 4
   28464:	00438393          	add	t2,t2,4
    bltu t0, t1, 0b
   28468:	fe62e8e3          	bltu	t0,t1,28458 <_start+0xc0>
1:

// Assign thread pointer register (tp) to main thread tls base
.globl __tls_base
    la tp, __tls_base
   2846c:	00003217          	auipc	tp,0x3
   28470:	c2420213          	add	tp,tp,-988 # 2b090 <alt_log_msg_bss>

    /* Log that alt_main is about to be called. */
#ifdef ALT_LOG_ENABLE
    ALT_LOG_PUTS(alt_log_msg_alt_main)
   28474:	00004597          	auipc	a1,0x4
   28478:	d6058593          	add	a1,a1,-672 # 2c1d4 <alt_log_boot_on_flag>
   2847c:	0005a503          	lw	a0,0(a1)
   28480:	00050863          	beqz	a0,28490 <_start+0xf8>
   28484:	00003517          	auipc	a0,0x3
   28488:	c2850513          	add	a0,a0,-984 # 2b0ac <alt_log_msg_alt_main>
   2848c:	6f0010ef          	jal	29b7c <tx_log_str>
#endif /* ALT_LOG_ENABLE */

    /* Call the C entry point. It should never return. */
    call alt_main
   28490:	39d000ef          	jal	2902c <alt_main>

00028494 <alt_after_alt_main>:

    /* Wait in infinite loop in case alt_main does return. */
alt_after_alt_main:
    j alt_after_alt_main
   28494:	0000006f          	j	28494 <alt_after_alt_main>

00028498 <alt_load_section>:
   28498:	fe010113          	add	sp,sp,-32
   2849c:	00812e23          	sw	s0,28(sp)
   284a0:	02010413          	add	s0,sp,32
   284a4:	fea42623          	sw	a0,-20(s0)
   284a8:	feb42423          	sw	a1,-24(s0)
   284ac:	fec42223          	sw	a2,-28(s0)
   284b0:	fe842703          	lw	a4,-24(s0)
   284b4:	fec42783          	lw	a5,-20(s0)
   284b8:	02f70a63          	beq	a4,a5,284ec <alt_load_section+0x54>
   284bc:	0240006f          	j	284e0 <alt_load_section+0x48>
   284c0:	fec42703          	lw	a4,-20(s0)
   284c4:	00470793          	add	a5,a4,4
   284c8:	fef42623          	sw	a5,-20(s0)
   284cc:	fe842783          	lw	a5,-24(s0)
   284d0:	00478693          	add	a3,a5,4
   284d4:	fed42423          	sw	a3,-24(s0)
   284d8:	00072703          	lw	a4,0(a4)
   284dc:	00e7a023          	sw	a4,0(a5)
   284e0:	fe842703          	lw	a4,-24(s0)
   284e4:	fe442783          	lw	a5,-28(s0)
   284e8:	fcf71ce3          	bne	a4,a5,284c0 <alt_load_section+0x28>
   284ec:	00000013          	nop
   284f0:	01c12403          	lw	s0,28(sp)
   284f4:	02010113          	add	sp,sp,32
   284f8:	00008067          	ret

000284fc <alt_load>:
   284fc:	ff010113          	add	sp,sp,-16
   28500:	00112623          	sw	ra,12(sp)
   28504:	00812423          	sw	s0,8(sp)
   28508:	01010413          	add	s0,sp,16
   2850c:	0002c7b7          	lui	a5,0x2c
   28510:	1f478613          	add	a2,a5,500 # 2c1f4 <__flash_rwdata_start>
   28514:	0002b7b7          	lui	a5,0x2b
   28518:	09078593          	add	a1,a5,144 # 2b090 <alt_log_msg_bss>
   2851c:	0002c7b7          	lui	a5,0x2c
   28520:	1f478513          	add	a0,a5,500 # 2c1f4 <__flash_rwdata_start>
   28524:	f75ff0ef          	jal	28498 <alt_load_section>
   28528:	000287b7          	lui	a5,0x28
   2852c:	37478613          	add	a2,a5,884 # 28374 <main>
   28530:	000287b7          	lui	a5,0x28
   28534:	02078593          	add	a1,a5,32 # 28020 <trap_vector>
   28538:	000287b7          	lui	a5,0x28
   2853c:	02078513          	add	a0,a5,32 # 28020 <trap_vector>
   28540:	f59ff0ef          	jal	28498 <alt_load_section>
   28544:	0002b7b7          	lui	a5,0x2b
   28548:	09078613          	add	a2,a5,144 # 2b090 <alt_log_msg_bss>
   2854c:	0002b7b7          	lui	a5,0x2b
   28550:	d9c78593          	add	a1,a5,-612 # 2ad9c <__flash_rodata_start>
   28554:	0002b7b7          	lui	a5,0x2b
   28558:	d9c78513          	add	a0,a5,-612 # 2ad9c <__flash_rodata_start>
   2855c:	f3dff0ef          	jal	28498 <alt_load_section>
   28560:	7c0010ef          	jal	29d20 <alt_dcache_flush_all>
   28564:	7d8010ef          	jal	29d3c <alt_icache_flush_all>
   28568:	00000013          	nop
   2856c:	00c12083          	lw	ra,12(sp)
   28570:	00812403          	lw	s0,8(sp)
   28574:	01010113          	add	sp,sp,16
   28578:	00008067          	ret

0002857c <alt_log_txchar>:
   2857c:	fd010113          	add	sp,sp,-48
   28580:	02812623          	sw	s0,44(sp)
   28584:	03010413          	add	s0,sp,48
   28588:	fca42e23          	sw	a0,-36(s0)
   2858c:	fcb42c23          	sw	a1,-40(s0)
   28590:	00000013          	nop
   28594:	fd842783          	lw	a5,-40(s0)
   28598:	00478793          	add	a5,a5,4
   2859c:	0007a783          	lw	a5,0(a5)
   285a0:	fef42423          	sw	a5,-24(s0)
   285a4:	fe842703          	lw	a4,-24(s0)
   285a8:	000107b7          	lui	a5,0x10
   285ac:	fef764e3          	bltu	a4,a5,28594 <alt_log_txchar+0x18>
   285b0:	fdc42783          	lw	a5,-36(s0)
   285b4:	fef42623          	sw	a5,-20(s0)
   285b8:	fd842783          	lw	a5,-40(s0)
   285bc:	fec42703          	lw	a4,-20(s0)
   285c0:	00e7a023          	sw	a4,0(a5) # 10000 <__reset-0x18000>
   285c4:	00000013          	nop
   285c8:	02c12403          	lw	s0,44(sp)
   285cc:	03010113          	add	sp,sp,48
   285d0:	00008067          	ret

000285d4 <alt_log_repchar>:
   285d4:	fe010113          	add	sp,sp,-32
   285d8:	00112e23          	sw	ra,28(sp)
   285dc:	00812c23          	sw	s0,24(sp)
   285e0:	02010413          	add	s0,sp,32
   285e4:	00050793          	mv	a5,a0
   285e8:	feb42423          	sw	a1,-24(s0)
   285ec:	fec42223          	sw	a2,-28(s0)
   285f0:	fef407a3          	sb	a5,-17(s0)
   285f4:	0180006f          	j	2860c <alt_log_repchar+0x38>
   285f8:	fef44783          	lbu	a5,-17(s0)
   285fc:	fe442703          	lw	a4,-28(s0)
   28600:	00070593          	mv	a1,a4
   28604:	00078513          	mv	a0,a5
   28608:	f75ff0ef          	jal	2857c <alt_log_txchar>
   2860c:	fe842783          	lw	a5,-24(s0)
   28610:	fff78713          	add	a4,a5,-1
   28614:	fee42423          	sw	a4,-24(s0)
   28618:	fef040e3          	bgtz	a5,285f8 <alt_log_repchar+0x24>
   2861c:	00000013          	nop
   28620:	00000013          	nop
   28624:	01c12083          	lw	ra,28(sp)
   28628:	01812403          	lw	s0,24(sp)
   2862c:	02010113          	add	sp,sp,32
   28630:	00008067          	ret

00028634 <alt_log_private_printf>:
   28634:	fa010113          	add	sp,sp,-96
   28638:	04112e23          	sw	ra,92(sp)
   2863c:	04812c23          	sw	s0,88(sp)
   28640:	04912a23          	sw	s1,84(sp)
   28644:	06010413          	add	s0,sp,96
   28648:	faa42623          	sw	a0,-84(s0)
   2864c:	fab42423          	sw	a1,-88(s0)
   28650:	fac42223          	sw	a2,-92(s0)
   28654:	fa042e23          	sw	zero,-68(s0)
   28658:	fc042023          	sw	zero,-64(s0)
   2865c:	fc042223          	sw	zero,-60(s0)
   28660:	fc042423          	sw	zero,-56(s0)
   28664:	fc042623          	sw	zero,-52(s0)
   28668:	fc042823          	sw	zero,-48(s0)
   2866c:	fc042a23          	sw	zero,-44(s0)
   28670:	fac42783          	lw	a5,-84(s0)
   28674:	faf42a23          	sw	a5,-76(s0)
   28678:	fa042c23          	sw	zero,-72(s0)
   2867c:	4ec0006f          	j	28b68 <alt_log_private_printf+0x534>
   28680:	fb842703          	lw	a4,-72(s0)
   28684:	00200793          	li	a5,2
   28688:	0cf70c63          	beq	a4,a5,28760 <alt_log_private_printf+0x12c>
   2868c:	fb842703          	lw	a4,-72(s0)
   28690:	00200793          	li	a5,2
   28694:	4ce7ca63          	blt	a5,a4,28b68 <alt_log_private_printf+0x534>
   28698:	fb842783          	lw	a5,-72(s0)
   2869c:	00078a63          	beqz	a5,286b0 <alt_log_private_printf+0x7c>
   286a0:	fb842703          	lw	a4,-72(s0)
   286a4:	00100793          	li	a5,1
   286a8:	06f70263          	beq	a4,a5,2870c <alt_log_private_printf+0xd8>
   286ac:	4bc0006f          	j	28b68 <alt_log_private_printf+0x534>
   286b0:	fb344703          	lbu	a4,-77(s0)
   286b4:	02500793          	li	a5,37
   286b8:	02f71e63          	bne	a4,a5,286f4 <alt_log_private_printf+0xc0>
   286bc:	fa042e23          	sw	zero,-68(s0)
   286c0:	fc042023          	sw	zero,-64(s0)
   286c4:	00a00793          	li	a5,10
   286c8:	fcf42623          	sw	a5,-52(s0)
   286cc:	00100793          	li	a5,1
   286d0:	fcf42823          	sw	a5,-48(s0)
   286d4:	fc042a23          	sw	zero,-44(s0)
   286d8:	fff00793          	li	a5,-1
   286dc:	fcf42223          	sw	a5,-60(s0)
   286e0:	fff00793          	li	a5,-1
   286e4:	fcf42423          	sw	a5,-56(s0)
   286e8:	00100793          	li	a5,1
   286ec:	faf42c23          	sw	a5,-72(s0)
   286f0:	4780006f          	j	28b68 <alt_log_private_printf+0x534>
   286f4:	fb344783          	lbu	a5,-77(s0)
   286f8:	fa842703          	lw	a4,-88(s0)
   286fc:	00070593          	mv	a1,a4
   28700:	00078513          	mv	a0,a5
   28704:	e79ff0ef          	jal	2857c <alt_log_txchar>
   28708:	4600006f          	j	28b68 <alt_log_private_printf+0x534>
   2870c:	fb344703          	lbu	a4,-77(s0)
   28710:	03000793          	li	a5,48
   28714:	00f71c63          	bne	a4,a5,2872c <alt_log_private_printf+0xf8>
   28718:	00100793          	li	a5,1
   2871c:	faf42e23          	sw	a5,-68(s0)
   28720:	00200793          	li	a5,2
   28724:	faf42c23          	sw	a5,-72(s0)
   28728:	4400006f          	j	28b68 <alt_log_private_printf+0x534>
   2872c:	fb344703          	lbu	a4,-77(s0)
   28730:	02500793          	li	a5,37
   28734:	02f71063          	bne	a4,a5,28754 <alt_log_private_printf+0x120>
   28738:	fb344783          	lbu	a5,-77(s0)
   2873c:	fa842703          	lw	a4,-88(s0)
   28740:	00070593          	mv	a1,a4
   28744:	00078513          	mv	a0,a5
   28748:	e35ff0ef          	jal	2857c <alt_log_txchar>
   2874c:	fa042c23          	sw	zero,-72(s0)
   28750:	4180006f          	j	28b68 <alt_log_private_printf+0x534>
   28754:	00200793          	li	a5,2
   28758:	faf42c23          	sw	a5,-72(s0)
   2875c:	00000013          	nop
   28760:	fb344703          	lbu	a4,-77(s0)
   28764:	02e00793          	li	a5,46
   28768:	00f71663          	bne	a4,a5,28774 <alt_log_private_printf+0x140>
   2876c:	fc042423          	sw	zero,-56(s0)
   28770:	3f40006f          	j	28b64 <alt_log_private_printf+0x530>
   28774:	fb344703          	lbu	a4,-77(s0)
   28778:	02f00793          	li	a5,47
   2877c:	08e7f463          	bgeu	a5,a4,28804 <alt_log_private_printf+0x1d0>
   28780:	fb344703          	lbu	a4,-77(s0)
   28784:	03900793          	li	a5,57
   28788:	06e7ee63          	bltu	a5,a4,28804 <alt_log_private_printf+0x1d0>
   2878c:	fb344783          	lbu	a5,-77(s0)
   28790:	fd078793          	add	a5,a5,-48
   28794:	faf409a3          	sb	a5,-77(s0)
   28798:	fc842783          	lw	a5,-56(s0)
   2879c:	0407d063          	bgez	a5,287dc <alt_log_private_printf+0x1a8>
   287a0:	fc442783          	lw	a5,-60(s0)
   287a4:	0007d663          	bgez	a5,287b0 <alt_log_private_printf+0x17c>
   287a8:	fc042223          	sw	zero,-60(s0)
   287ac:	01c0006f          	j	287c8 <alt_log_private_printf+0x194>
   287b0:	fc442703          	lw	a4,-60(s0)
   287b4:	00070793          	mv	a5,a4
   287b8:	00279793          	sll	a5,a5,0x2
   287bc:	00e787b3          	add	a5,a5,a4
   287c0:	00179793          	sll	a5,a5,0x1
   287c4:	fcf42223          	sw	a5,-60(s0)
   287c8:	fb344783          	lbu	a5,-77(s0)
   287cc:	fc442703          	lw	a4,-60(s0)
   287d0:	00f707b3          	add	a5,a4,a5
   287d4:	fcf42223          	sw	a5,-60(s0)
   287d8:	38c0006f          	j	28b64 <alt_log_private_printf+0x530>
   287dc:	fc842703          	lw	a4,-56(s0)
   287e0:	00070793          	mv	a5,a4
   287e4:	00279793          	sll	a5,a5,0x2
   287e8:	00e787b3          	add	a5,a5,a4
   287ec:	00179793          	sll	a5,a5,0x1
   287f0:	00078713          	mv	a4,a5
   287f4:	fb344783          	lbu	a5,-77(s0)
   287f8:	00f707b3          	add	a5,a4,a5
   287fc:	fcf42423          	sw	a5,-56(s0)
   28800:	3640006f          	j	28b64 <alt_log_private_printf+0x530>
   28804:	fb344703          	lbu	a4,-77(s0)
   28808:	06c00793          	li	a5,108
   2880c:	00f71863          	bne	a4,a5,2881c <alt_log_private_printf+0x1e8>
   28810:	00100793          	li	a5,1
   28814:	fcf42023          	sw	a5,-64(s0)
   28818:	34c0006f          	j	28b64 <alt_log_private_printf+0x530>
   2881c:	fb344783          	lbu	a5,-77(s0)
   28820:	fa878793          	add	a5,a5,-88
   28824:	02000713          	li	a4,32
   28828:	32f76a63          	bltu	a4,a5,28b5c <alt_log_private_printf+0x528>
   2882c:	00279713          	sll	a4,a5,0x2
   28830:	0002b7b7          	lui	a5,0x2b
   28834:	de478793          	add	a5,a5,-540 # 2ade4 <__flash_rodata_start+0x48>
   28838:	00f707b3          	add	a5,a4,a5
   2883c:	0007a783          	lw	a5,0(a5)
   28840:	00078067          	jr	a5
   28844:	fc042783          	lw	a5,-64(s0)
   28848:	02078e63          	beqz	a5,28884 <alt_log_private_printf+0x250>
   2884c:	fd042783          	lw	a5,-48(s0)
   28850:	00078e63          	beqz	a5,2886c <alt_log_private_printf+0x238>
   28854:	fa442783          	lw	a5,-92(s0)
   28858:	00478713          	add	a4,a5,4
   2885c:	fae42223          	sw	a4,-92(s0)
   28860:	0007a783          	lw	a5,0(a5)
   28864:	fcf42c23          	sw	a5,-40(s0)
   28868:	0500006f          	j	288b8 <alt_log_private_printf+0x284>
   2886c:	fa442783          	lw	a5,-92(s0)
   28870:	00478713          	add	a4,a5,4
   28874:	fae42223          	sw	a4,-92(s0)
   28878:	0007a783          	lw	a5,0(a5)
   2887c:	fcf42c23          	sw	a5,-40(s0)
   28880:	0380006f          	j	288b8 <alt_log_private_printf+0x284>
   28884:	fd042783          	lw	a5,-48(s0)
   28888:	00078e63          	beqz	a5,288a4 <alt_log_private_printf+0x270>
   2888c:	fa442783          	lw	a5,-92(s0)
   28890:	00478713          	add	a4,a5,4
   28894:	fae42223          	sw	a4,-92(s0)
   28898:	0007a783          	lw	a5,0(a5)
   2889c:	fcf42c23          	sw	a5,-40(s0)
   288a0:	0180006f          	j	288b8 <alt_log_private_printf+0x284>
   288a4:	fa442783          	lw	a5,-92(s0)
   288a8:	00478713          	add	a4,a5,4
   288ac:	fae42223          	sw	a4,-92(s0)
   288b0:	0007a783          	lw	a5,0(a5)
   288b4:	fcf42c23          	sw	a5,-40(s0)
   288b8:	fe042223          	sw	zero,-28(s0)
   288bc:	fd042783          	lw	a5,-48(s0)
   288c0:	02078063          	beqz	a5,288e0 <alt_log_private_printf+0x2ac>
   288c4:	fd842783          	lw	a5,-40(s0)
   288c8:	0007dc63          	bgez	a5,288e0 <alt_log_private_printf+0x2ac>
   288cc:	fd842783          	lw	a5,-40(s0)
   288d0:	40f007b3          	neg	a5,a5
   288d4:	fcf42c23          	sw	a5,-40(s0)
   288d8:	00100793          	li	a5,1
   288dc:	fef42223          	sw	a5,-28(s0)
   288e0:	fd842783          	lw	a5,-40(s0)
   288e4:	fef42023          	sw	a5,-32(s0)
   288e8:	00100793          	li	a5,1
   288ec:	fcf42e23          	sw	a5,-36(s0)
   288f0:	00100793          	li	a5,1
   288f4:	fef42423          	sw	a5,-24(s0)
   288f8:	0280006f          	j	28920 <alt_log_private_printf+0x2ec>
   288fc:	fe842783          	lw	a5,-24(s0)
   28900:	00178793          	add	a5,a5,1
   28904:	fef42423          	sw	a5,-24(s0)
   28908:	fcc42783          	lw	a5,-52(s0)
   2890c:	00078593          	mv	a1,a5
   28910:	fdc42503          	lw	a0,-36(s0)
   28914:	3c1010ef          	jal	2a4d4 <__mulsi3>
   28918:	00050793          	mv	a5,a0
   2891c:	fcf42e23          	sw	a5,-36(s0)
   28920:	fcc42783          	lw	a5,-52(s0)
   28924:	00078593          	mv	a1,a5
   28928:	fe042503          	lw	a0,-32(s0)
   2892c:	3d5010ef          	jal	2a500 <__hidden___udivsi3>
   28930:	00050793          	mv	a5,a0
   28934:	fef42023          	sw	a5,-32(s0)
   28938:	fe042783          	lw	a5,-32(s0)
   2893c:	fc0790e3          	bnez	a5,288fc <alt_log_private_printf+0x2c8>
   28940:	fc442703          	lw	a4,-60(s0)
   28944:	fe842783          	lw	a5,-24(s0)
   28948:	40f707b3          	sub	a5,a4,a5
   2894c:	fcf42223          	sw	a5,-60(s0)
   28950:	fbc42783          	lw	a5,-68(s0)
   28954:	02078e63          	beqz	a5,28990 <alt_log_private_printf+0x35c>
   28958:	fe442783          	lw	a5,-28(s0)
   2895c:	02078063          	beqz	a5,2897c <alt_log_private_printf+0x348>
   28960:	fa842783          	lw	a5,-88(s0)
   28964:	00078593          	mv	a1,a5
   28968:	02d00513          	li	a0,45
   2896c:	c11ff0ef          	jal	2857c <alt_log_txchar>
   28970:	fc442783          	lw	a5,-60(s0)
   28974:	fff78793          	add	a5,a5,-1
   28978:	fcf42223          	sw	a5,-60(s0)
   2897c:	fa842603          	lw	a2,-88(s0)
   28980:	fc442583          	lw	a1,-60(s0)
   28984:	03000513          	li	a0,48
   28988:	c4dff0ef          	jal	285d4 <alt_log_repchar>
   2898c:	0d40006f          	j	28a60 <alt_log_private_printf+0x42c>
   28990:	fe442783          	lw	a5,-28(s0)
   28994:	00078863          	beqz	a5,289a4 <alt_log_private_printf+0x370>
   28998:	fc442783          	lw	a5,-60(s0)
   2899c:	fff78793          	add	a5,a5,-1
   289a0:	fcf42223          	sw	a5,-60(s0)
   289a4:	fa842603          	lw	a2,-88(s0)
   289a8:	fc442583          	lw	a1,-60(s0)
   289ac:	02000513          	li	a0,32
   289b0:	c25ff0ef          	jal	285d4 <alt_log_repchar>
   289b4:	fe442783          	lw	a5,-28(s0)
   289b8:	0a078463          	beqz	a5,28a60 <alt_log_private_printf+0x42c>
   289bc:	fa842783          	lw	a5,-88(s0)
   289c0:	00078593          	mv	a1,a5
   289c4:	02d00513          	li	a0,45
   289c8:	bb5ff0ef          	jal	2857c <alt_log_txchar>
   289cc:	0940006f          	j	28a60 <alt_log_private_printf+0x42c>
   289d0:	fdc42583          	lw	a1,-36(s0)
   289d4:	fd842503          	lw	a0,-40(s0)
   289d8:	329010ef          	jal	2a500 <__hidden___udivsi3>
   289dc:	00050793          	mv	a5,a0
   289e0:	faf40923          	sb	a5,-78(s0)
   289e4:	fb244783          	lbu	a5,-78(s0)
   289e8:	03078793          	add	a5,a5,48
   289ec:	faf40923          	sb	a5,-78(s0)
   289f0:	fb244703          	lbu	a4,-78(s0)
   289f4:	03900793          	li	a5,57
   289f8:	02e7f263          	bgeu	a5,a4,28a1c <alt_log_private_printf+0x3e8>
   289fc:	fd442783          	lw	a5,-44(s0)
   28a00:	00078663          	beqz	a5,28a0c <alt_log_private_printf+0x3d8>
   28a04:	00700793          	li	a5,7
   28a08:	0080006f          	j	28a10 <alt_log_private_printf+0x3dc>
   28a0c:	02700793          	li	a5,39
   28a10:	fb244703          	lbu	a4,-78(s0)
   28a14:	00e787b3          	add	a5,a5,a4
   28a18:	faf40923          	sb	a5,-78(s0)
   28a1c:	fb244783          	lbu	a5,-78(s0)
   28a20:	fa842703          	lw	a4,-88(s0)
   28a24:	00070593          	mv	a1,a4
   28a28:	00078513          	mv	a0,a5
   28a2c:	b51ff0ef          	jal	2857c <alt_log_txchar>
   28a30:	fd842783          	lw	a5,-40(s0)
   28a34:	fdc42583          	lw	a1,-36(s0)
   28a38:	00078513          	mv	a0,a5
   28a3c:	30d010ef          	jal	2a548 <__umodsi3>
   28a40:	00050793          	mv	a5,a0
   28a44:	fcf42c23          	sw	a5,-40(s0)
   28a48:	fcc42783          	lw	a5,-52(s0)
   28a4c:	00078593          	mv	a1,a5
   28a50:	fdc42503          	lw	a0,-36(s0)
   28a54:	2ad010ef          	jal	2a500 <__hidden___udivsi3>
   28a58:	00050793          	mv	a5,a0
   28a5c:	fcf42e23          	sw	a5,-36(s0)
   28a60:	fdc42783          	lw	a5,-36(s0)
   28a64:	f60796e3          	bnez	a5,289d0 <alt_log_private_printf+0x39c>
   28a68:	fa042c23          	sw	zero,-72(s0)
   28a6c:	0f00006f          	j	28b5c <alt_log_private_printf+0x528>
   28a70:	fc042823          	sw	zero,-48(s0)
   28a74:	dd1ff06f          	j	28844 <alt_log_private_printf+0x210>
   28a78:	fc042823          	sw	zero,-48(s0)
   28a7c:	00800793          	li	a5,8
   28a80:	fcf42623          	sw	a5,-52(s0)
   28a84:	dc1ff06f          	j	28844 <alt_log_private_printf+0x210>
   28a88:	fc042823          	sw	zero,-48(s0)
   28a8c:	01000793          	li	a5,16
   28a90:	fcf42623          	sw	a5,-52(s0)
   28a94:	db1ff06f          	j	28844 <alt_log_private_printf+0x210>
   28a98:	fc042823          	sw	zero,-48(s0)
   28a9c:	01000793          	li	a5,16
   28aa0:	fcf42623          	sw	a5,-52(s0)
   28aa4:	00100793          	li	a5,1
   28aa8:	fcf42a23          	sw	a5,-44(s0)
   28aac:	d99ff06f          	j	28844 <alt_log_private_printf+0x210>
   28ab0:	fc442783          	lw	a5,-60(s0)
   28ab4:	fff78793          	add	a5,a5,-1
   28ab8:	fa842603          	lw	a2,-88(s0)
   28abc:	00078593          	mv	a1,a5
   28ac0:	02000513          	li	a0,32
   28ac4:	b11ff0ef          	jal	285d4 <alt_log_repchar>
   28ac8:	fa442783          	lw	a5,-92(s0)
   28acc:	00478713          	add	a4,a5,4
   28ad0:	fae42223          	sw	a4,-92(s0)
   28ad4:	0007a783          	lw	a5,0(a5)
   28ad8:	fa842703          	lw	a4,-88(s0)
   28adc:	00070593          	mv	a1,a4
   28ae0:	00078513          	mv	a0,a5
   28ae4:	a99ff0ef          	jal	2857c <alt_log_txchar>
   28ae8:	0740006f          	j	28b5c <alt_log_private_printf+0x528>
   28aec:	fa442783          	lw	a5,-92(s0)
   28af0:	00478713          	add	a4,a5,4
   28af4:	fae42223          	sw	a4,-92(s0)
   28af8:	0007a783          	lw	a5,0(a5)
   28afc:	fef42623          	sw	a5,-20(s0)
   28b00:	fc442483          	lw	s1,-60(s0)
   28b04:	fec42503          	lw	a0,-20(s0)
   28b08:	095010ef          	jal	2a39c <strlen>
   28b0c:	00050793          	mv	a5,a0
   28b10:	40f487b3          	sub	a5,s1,a5
   28b14:	fa842603          	lw	a2,-88(s0)
   28b18:	00078593          	mv	a1,a5
   28b1c:	02000513          	li	a0,32
   28b20:	ab5ff0ef          	jal	285d4 <alt_log_repchar>
   28b24:	0280006f          	j	28b4c <alt_log_private_printf+0x518>
   28b28:	fec42783          	lw	a5,-20(s0)
   28b2c:	00178713          	add	a4,a5,1
   28b30:	fee42623          	sw	a4,-20(s0)
   28b34:	0007c783          	lbu	a5,0(a5)
   28b38:	00078713          	mv	a4,a5
   28b3c:	fa842783          	lw	a5,-88(s0)
   28b40:	00078593          	mv	a1,a5
   28b44:	00070513          	mv	a0,a4
   28b48:	a35ff0ef          	jal	2857c <alt_log_txchar>
   28b4c:	fec42783          	lw	a5,-20(s0)
   28b50:	0007c783          	lbu	a5,0(a5)
   28b54:	fc079ae3          	bnez	a5,28b28 <alt_log_private_printf+0x4f4>
   28b58:	00000013          	nop
   28b5c:	fa042c23          	sw	zero,-72(s0)
   28b60:	0040006f          	j	28b64 <alt_log_private_printf+0x530>
   28b64:	00000013          	nop
   28b68:	fb442783          	lw	a5,-76(s0)
   28b6c:	00178713          	add	a4,a5,1
   28b70:	fae42a23          	sw	a4,-76(s0)
   28b74:	0007c783          	lbu	a5,0(a5)
   28b78:	faf409a3          	sb	a5,-77(s0)
   28b7c:	fb344783          	lbu	a5,-77(s0)
   28b80:	b00790e3          	bnez	a5,28680 <alt_log_private_printf+0x4c>
   28b84:	00000013          	nop
   28b88:	00000013          	nop
   28b8c:	05c12083          	lw	ra,92(sp)
   28b90:	05812403          	lw	s0,88(sp)
   28b94:	05412483          	lw	s1,84(sp)
   28b98:	06010113          	add	sp,sp,96
   28b9c:	00008067          	ret

00028ba0 <alt_log_printf_proc>:
   28ba0:	fb010113          	add	sp,sp,-80
   28ba4:	02112623          	sw	ra,44(sp)
   28ba8:	02812423          	sw	s0,40(sp)
   28bac:	03010413          	add	s0,sp,48
   28bb0:	fca42e23          	sw	a0,-36(s0)
   28bb4:	00b42223          	sw	a1,4(s0)
   28bb8:	00c42423          	sw	a2,8(s0)
   28bbc:	00d42623          	sw	a3,12(s0)
   28bc0:	00e42823          	sw	a4,16(s0)
   28bc4:	00f42a23          	sw	a5,20(s0)
   28bc8:	01042c23          	sw	a6,24(s0)
   28bcc:	01142e23          	sw	a7,28(s0)
   28bd0:	0002d7b7          	lui	a5,0x2d
   28bd4:	3987a703          	lw	a4,920(a5) # 2d398 <__stack_chk_guard>
   28bd8:	fee42623          	sw	a4,-20(s0)
   28bdc:	00000713          	li	a4,0
   28be0:	02040793          	add	a5,s0,32
   28be4:	fcf42c23          	sw	a5,-40(s0)
   28be8:	fd842783          	lw	a5,-40(s0)
   28bec:	fe478793          	add	a5,a5,-28
   28bf0:	fef42423          	sw	a5,-24(s0)
   28bf4:	fe842783          	lw	a5,-24(s0)
   28bf8:	00078613          	mv	a2,a5
   28bfc:	000307b7          	lui	a5,0x30
   28c00:	06078593          	add	a1,a5,96 # 30060 <__alt_data_end+0x1c60>
   28c04:	fdc42503          	lw	a0,-36(s0)
   28c08:	a2dff0ef          	jal	28634 <alt_log_private_printf>
   28c0c:	00000793          	li	a5,0
   28c10:	00078713          	mv	a4,a5
   28c14:	0002d7b7          	lui	a5,0x2d
   28c18:	fec42683          	lw	a3,-20(s0)
   28c1c:	3987a783          	lw	a5,920(a5) # 2d398 <__stack_chk_guard>
   28c20:	00f6c7b3          	xor	a5,a3,a5
   28c24:	00000693          	li	a3,0
   28c28:	00078463          	beqz	a5,28c30 <alt_log_printf_proc+0x90>
   28c2c:	6c4010ef          	jal	2a2f0 <__stack_chk_fail_weak>
   28c30:	00070513          	mv	a0,a4
   28c34:	02c12083          	lw	ra,44(sp)
   28c38:	02812403          	lw	s0,40(sp)
   28c3c:	05010113          	add	sp,sp,80
   28c40:	00008067          	ret

00028c44 <altera_avalon_jtag_uart_report_log>:
   28c44:	fd010113          	add	sp,sp,-48
   28c48:	02112623          	sw	ra,44(sp)
   28c4c:	02812423          	sw	s0,40(sp)
   28c50:	03010413          	add	s0,sp,48
   28c54:	fca42e23          	sw	a0,-36(s0)
   28c58:	0002d7b7          	lui	a5,0x2d
   28c5c:	3667c783          	lbu	a5,870(a5) # 2d366 <alt_log_jtag_uart_alarm_on_flag>
   28c60:	0ff7f793          	zext.b	a5,a5
   28c64:	04078663          	beqz	a5,28cb0 <altera_avalon_jtag_uart_report_log+0x6c>
   28c68:	fdc42783          	lw	a5,-36(s0)
   28c6c:	fef42423          	sw	a5,-24(s0)
   28c70:	0002b7b7          	lui	a5,0x2b
   28c74:	e6878793          	add	a5,a5,-408 # 2ae68 <__flash_rodata_start+0xcc>
   28c78:	fef42623          	sw	a5,-20(s0)
   28c7c:	fe842783          	lw	a5,-24(s0)
   28c80:	0007a783          	lw	a5,0(a5)
   28c84:	fec42603          	lw	a2,-20(s0)
   28c88:	00078593          	mv	a1,a5
   28c8c:	fe842503          	lw	a0,-24(s0)
   28c90:	038000ef          	jal	28cc8 <alt_log_jtag_uart_print_control_reg>
   28c94:	0002d7b7          	lui	a5,0x2d
   28c98:	3807a783          	lw	a5,896(a5) # 2d380 <_alt_tick_rate>
   28c9c:	00a00593          	li	a1,10
   28ca0:	00078513          	mv	a0,a5
   28ca4:	05d010ef          	jal	2a500 <__hidden___udivsi3>
   28ca8:	00050793          	mv	a5,a0
   28cac:	0080006f          	j	28cb4 <altera_avalon_jtag_uart_report_log+0x70>
   28cb0:	00000793          	li	a5,0
   28cb4:	00078513          	mv	a0,a5
   28cb8:	02c12083          	lw	ra,44(sp)
   28cbc:	02812403          	lw	s0,40(sp)
   28cc0:	03010113          	add	sp,sp,48
   28cc4:	00008067          	ret

00028cc8 <alt_log_jtag_uart_print_control_reg>:
   28cc8:	fb010113          	add	sp,sp,-80
   28ccc:	04112623          	sw	ra,76(sp)
   28cd0:	04812423          	sw	s0,72(sp)
   28cd4:	05010413          	add	s0,sp,80
   28cd8:	fca42623          	sw	a0,-52(s0)
   28cdc:	fcb42423          	sw	a1,-56(s0)
   28ce0:	fcc42223          	sw	a2,-60(s0)
   28ce4:	fc842783          	lw	a5,-56(s0)
   28ce8:	00478793          	add	a5,a5,4
   28cec:	0007a783          	lw	a5,0(a5)
   28cf0:	fcf42823          	sw	a5,-48(s0)
   28cf4:	fd042783          	lw	a5,-48(s0)
   28cf8:	fcf42a23          	sw	a5,-44(s0)
   28cfc:	fd442783          	lw	a5,-44(s0)
   28d00:	0107d793          	srl	a5,a5,0x10
   28d04:	fcf42c23          	sw	a5,-40(s0)
   28d08:	fd442783          	lw	a5,-44(s0)
   28d0c:	0017d793          	srl	a5,a5,0x1
   28d10:	0017f793          	and	a5,a5,1
   28d14:	fcf42e23          	sw	a5,-36(s0)
   28d18:	fd442783          	lw	a5,-44(s0)
   28d1c:	0017f793          	and	a5,a5,1
   28d20:	fef42023          	sw	a5,-32(s0)
   28d24:	fd442783          	lw	a5,-44(s0)
   28d28:	0087d793          	srl	a5,a5,0x8
   28d2c:	0017f793          	and	a5,a5,1
   28d30:	fef42223          	sw	a5,-28(s0)
   28d34:	fd442783          	lw	a5,-44(s0)
   28d38:	0097d793          	srl	a5,a5,0x9
   28d3c:	0017f793          	and	a5,a5,1
   28d40:	fef42423          	sw	a5,-24(s0)
   28d44:	fd442783          	lw	a5,-44(s0)
   28d48:	00a7d793          	srl	a5,a5,0xa
   28d4c:	0017f793          	and	a5,a5,1
   28d50:	fef42623          	sw	a5,-20(s0)
   28d54:	fcc42783          	lw	a5,-52(s0)
   28d58:	0347a703          	lw	a4,52(a5)
   28d5c:	fcc42783          	lw	a5,-52(s0)
   28d60:	0307a783          	lw	a5,48(a5)
   28d64:	40f70633          	sub	a2,a4,a5
   28d68:	fe042783          	lw	a5,-32(s0)
   28d6c:	00f12023          	sw	a5,0(sp)
   28d70:	fdc42883          	lw	a7,-36(s0)
   28d74:	fe442803          	lw	a6,-28(s0)
   28d78:	fe842783          	lw	a5,-24(s0)
   28d7c:	fec42703          	lw	a4,-20(s0)
   28d80:	fd842683          	lw	a3,-40(s0)
   28d84:	fc442583          	lw	a1,-60(s0)
   28d88:	0002b537          	lui	a0,0x2b
   28d8c:	e7450513          	add	a0,a0,-396 # 2ae74 <__flash_rodata_start+0xd8>
   28d90:	e11ff0ef          	jal	28ba0 <alt_log_printf_proc>
   28d94:	00000013          	nop
   28d98:	04c12083          	lw	ra,76(sp)
   28d9c:	04812403          	lw	s0,72(sp)
   28da0:	05010113          	add	sp,sp,80
   28da4:	00008067          	ret

00028da8 <alt_log_jtag_uart_startup_info>:
   28da8:	fd010113          	add	sp,sp,-48
   28dac:	02112623          	sw	ra,44(sp)
   28db0:	02812423          	sw	s0,40(sp)
   28db4:	03010413          	add	s0,sp,48
   28db8:	fca42e23          	sw	a0,-36(s0)
   28dbc:	fcb42c23          	sw	a1,-40(s0)
   28dc0:	0002b7b7          	lui	a5,0x2b
   28dc4:	ebc78793          	add	a5,a5,-324 # 2aebc <__flash_rodata_start+0x120>
   28dc8:	fef42623          	sw	a5,-20(s0)
   28dcc:	fec42603          	lw	a2,-20(s0)
   28dd0:	fd842583          	lw	a1,-40(s0)
   28dd4:	fdc42503          	lw	a0,-36(s0)
   28dd8:	ef1ff0ef          	jal	28cc8 <alt_log_jtag_uart_print_control_reg>
   28ddc:	00000013          	nop
   28de0:	02c12083          	lw	ra,44(sp)
   28de4:	02812403          	lw	s0,40(sp)
   28de8:	03010113          	add	sp,sp,48
   28dec:	00008067          	ret

00028df0 <alt_log_jtag_uart_isr_proc>:
   28df0:	fd010113          	add	sp,sp,-48
   28df4:	02112623          	sw	ra,44(sp)
   28df8:	02812423          	sw	s0,40(sp)
   28dfc:	03010413          	add	s0,sp,48
   28e00:	fca42e23          	sw	a0,-36(s0)
   28e04:	fcb42c23          	sw	a1,-40(s0)
   28e08:	0002d7b7          	lui	a5,0x2d
   28e0c:	3677c783          	lbu	a5,871(a5) # 2d367 <alt_log_jtag_uart_isr_on_flag>
   28e10:	0ff7f793          	zext.b	a5,a5
   28e14:	02078263          	beqz	a5,28e38 <alt_log_jtag_uart_isr_proc+0x48>
   28e18:	0002b7b7          	lui	a5,0x2b
   28e1c:	ed078793          	add	a5,a5,-304 # 2aed0 <__flash_rodata_start+0x134>
   28e20:	fef42623          	sw	a5,-20(s0)
   28e24:	fec42603          	lw	a2,-20(s0)
   28e28:	fdc42583          	lw	a1,-36(s0)
   28e2c:	fd842503          	lw	a0,-40(s0)
   28e30:	e99ff0ef          	jal	28cc8 <alt_log_jtag_uart_print_control_reg>
   28e34:	00000013          	nop
   28e38:	00000013          	nop
   28e3c:	02c12083          	lw	ra,44(sp)
   28e40:	02812403          	lw	s0,40(sp)
   28e44:	03010113          	add	sp,sp,48
   28e48:	00008067          	ret

00028e4c <alt_log_write>:
   28e4c:	fd010113          	add	sp,sp,-48
   28e50:	02112623          	sw	ra,44(sp)
   28e54:	02812423          	sw	s0,40(sp)
   28e58:	03010413          	add	s0,sp,48
   28e5c:	fca42e23          	sw	a0,-36(s0)
   28e60:	fcb42c23          	sw	a1,-40(s0)
   28e64:	0002d7b7          	lui	a5,0x2d
   28e68:	3647c783          	lbu	a5,868(a5) # 2d364 <alt_log_write_on_flag>
   28e6c:	0ff7f793          	zext.b	a5,a5
   28e70:	12078263          	beqz	a5,28f94 <alt_log_write+0x148>
   28e74:	fd842783          	lw	a5,-40(s0)
   28e78:	00f00713          	li	a4,15
   28e7c:	00f77463          	bgeu	a4,a5,28e84 <alt_log_write+0x38>
   28e80:	00f00793          	li	a5,15
   28e84:	fef42623          	sw	a5,-20(s0)
   28e88:	fec42703          	lw	a4,-20(s0)
   28e8c:	00100793          	li	a5,1
   28e90:	10e7d063          	bge	a5,a4,28f90 <alt_log_write+0x144>
   28e94:	fe042423          	sw	zero,-24(s0)
   28e98:	0340006f          	j	28ecc <alt_log_write+0x80>
   28e9c:	fe842783          	lw	a5,-24(s0)
   28ea0:	fdc42703          	lw	a4,-36(s0)
   28ea4:	00f70733          	add	a4,a4,a5
   28ea8:	fe842683          	lw	a3,-24(s0)
   28eac:	0002d7b7          	lui	a5,0x2d
   28eb0:	42078793          	add	a5,a5,1056 # 2d420 <alt_log_write_buf>
   28eb4:	00f687b3          	add	a5,a3,a5
   28eb8:	00074703          	lbu	a4,0(a4)
   28ebc:	00e78023          	sb	a4,0(a5)
   28ec0:	fe842783          	lw	a5,-24(s0)
   28ec4:	00178793          	add	a5,a5,1
   28ec8:	fef42423          	sw	a5,-24(s0)
   28ecc:	fe842703          	lw	a4,-24(s0)
   28ed0:	fec42783          	lw	a5,-20(s0)
   28ed4:	fcf744e3          	blt	a4,a5,28e9c <alt_log_write+0x50>
   28ed8:	fec42783          	lw	a5,-20(s0)
   28edc:	fff78793          	add	a5,a5,-1
   28ee0:	0002d737          	lui	a4,0x2d
   28ee4:	42070713          	add	a4,a4,1056 # 2d420 <alt_log_write_buf>
   28ee8:	00f707b3          	add	a5,a4,a5
   28eec:	00a00713          	li	a4,10
   28ef0:	00e78023          	sb	a4,0(a5)
   28ef4:	0002d7b7          	lui	a5,0x2d
   28ef8:	42078713          	add	a4,a5,1056 # 2d420 <alt_log_write_buf>
   28efc:	fec42783          	lw	a5,-20(s0)
   28f00:	00f707b3          	add	a5,a4,a5
   28f04:	00d00713          	li	a4,13
   28f08:	00e78023          	sb	a4,0(a5)
   28f0c:	fec42783          	lw	a5,-20(s0)
   28f10:	00178793          	add	a5,a5,1
   28f14:	0002d737          	lui	a4,0x2d
   28f18:	42070713          	add	a4,a4,1056 # 2d420 <alt_log_write_buf>
   28f1c:	00f707b3          	add	a5,a4,a5
   28f20:	00078023          	sb	zero,0(a5)
   28f24:	fe042223          	sw	zero,-28(s0)
   28f28:	0440006f          	j	28f6c <alt_log_write+0x120>
   28f2c:	0002d7b7          	lui	a5,0x2d
   28f30:	42078713          	add	a4,a5,1056 # 2d420 <alt_log_write_buf>
   28f34:	fe442783          	lw	a5,-28(s0)
   28f38:	00f707b3          	add	a5,a4,a5
   28f3c:	0007c703          	lbu	a4,0(a5)
   28f40:	00400793          	li	a5,4
   28f44:	00f71e63          	bne	a4,a5,28f60 <alt_log_write+0x114>
   28f48:	0002d7b7          	lui	a5,0x2d
   28f4c:	42078713          	add	a4,a5,1056 # 2d420 <alt_log_write_buf>
   28f50:	fe442783          	lw	a5,-28(s0)
   28f54:	00f707b3          	add	a5,a4,a5
   28f58:	04400713          	li	a4,68
   28f5c:	00e78023          	sb	a4,0(a5)
   28f60:	fe442783          	lw	a5,-28(s0)
   28f64:	00178793          	add	a5,a5,1
   28f68:	fef42223          	sw	a5,-28(s0)
   28f6c:	fe442703          	lw	a4,-28(s0)
   28f70:	fec42783          	lw	a5,-20(s0)
   28f74:	faf74ce3          	blt	a4,a5,28f2c <alt_log_write+0xe0>
   28f78:	0002d7b7          	lui	a5,0x2d
   28f7c:	42078593          	add	a1,a5,1056 # 2d420 <alt_log_write_buf>
   28f80:	0002b7b7          	lui	a5,0x2b
   28f84:	edc78513          	add	a0,a5,-292 # 2aedc <__flash_rodata_start+0x140>
   28f88:	c19ff0ef          	jal	28ba0 <alt_log_printf_proc>
   28f8c:	0080006f          	j	28f94 <alt_log_write+0x148>
   28f90:	00000013          	nop
   28f94:	02c12083          	lw	ra,44(sp)
   28f98:	02812403          	lw	s0,40(sp)
   28f9c:	03010113          	add	sp,sp,48
   28fa0:	00008067          	ret

00028fa4 <alt_log_system_clock>:
   28fa4:	ff010113          	add	sp,sp,-16
   28fa8:	00112623          	sw	ra,12(sp)
   28fac:	00812423          	sw	s0,8(sp)
   28fb0:	01010413          	add	s0,sp,16
   28fb4:	0002d7b7          	lui	a5,0x2d
   28fb8:	3657c783          	lbu	a5,869(a5) # 2d365 <alt_log_sys_clk_on_flag>
   28fbc:	0ff7f793          	zext.b	a5,a5
   28fc0:	04078c63          	beqz	a5,29018 <alt_log_system_clock+0x74>
   28fc4:	0002d7b7          	lui	a5,0x2d
   28fc8:	36c7a783          	lw	a5,876(a5) # 2d36c <alt_log_sys_clk_count>
   28fcc:	00178713          	add	a4,a5,1
   28fd0:	0002d7b7          	lui	a5,0x2d
   28fd4:	36e7a623          	sw	a4,876(a5) # 2d36c <alt_log_sys_clk_count>
   28fd8:	0002d7b7          	lui	a5,0x2d
   28fdc:	3807a783          	lw	a5,896(a5) # 2d380 <_alt_tick_rate>
   28fe0:	0002d737          	lui	a4,0x2d
   28fe4:	36c72703          	lw	a4,876(a4) # 2d36c <alt_log_sys_clk_count>
   28fe8:	02e7f863          	bgeu	a5,a4,29018 <alt_log_system_clock+0x74>
   28fec:	0002d7b7          	lui	a5,0x2d
   28ff0:	3607a623          	sw	zero,876(a5) # 2d36c <alt_log_sys_clk_count>
   28ff4:	0002d7b7          	lui	a5,0x2d
   28ff8:	3707a783          	lw	a5,880(a5) # 2d370 <alt_system_clock_in_sec>
   28ffc:	00178693          	add	a3,a5,1
   29000:	0002d737          	lui	a4,0x2d
   29004:	36d72823          	sw	a3,880(a4) # 2d370 <alt_system_clock_in_sec>
   29008:	00078593          	mv	a1,a5
   2900c:	0002b7b7          	lui	a5,0x2b
   29010:	eec78513          	add	a0,a5,-276 # 2aeec <__flash_rodata_start+0x150>
   29014:	b8dff0ef          	jal	28ba0 <alt_log_printf_proc>
   29018:	00000013          	nop
   2901c:	00c12083          	lw	ra,12(sp)
   29020:	00812403          	lw	s0,8(sp)
   29024:	01010113          	add	sp,sp,16
   29028:	00008067          	ret

0002902c <alt_main>:
   2902c:	ff010113          	add	sp,sp,-16
   29030:	00112623          	sw	ra,12(sp)
   29034:	00812423          	sw	s0,8(sp)
   29038:	01010413          	add	s0,sp,16
   2903c:	0002c7b7          	lui	a5,0x2c
   29040:	1d47a703          	lw	a4,468(a5) # 2c1d4 <alt_log_boot_on_flag>
   29044:	00100793          	li	a5,1
   29048:	00f71863          	bne	a4,a5,29058 <alt_main+0x2c>
   2904c:	0002b7b7          	lui	a5,0x2b
   29050:	f0478513          	add	a0,a5,-252 # 2af04 <__flash_rodata_start+0x168>
   29054:	b4dff0ef          	jal	28ba0 <alt_log_printf_proc>
   29058:	00000513          	li	a0,0
   2905c:	338000ef          	jal	29394 <alt_irq_init>
   29060:	0002c7b7          	lui	a5,0x2c
   29064:	1d47a703          	lw	a4,468(a5) # 2c1d4 <alt_log_boot_on_flag>
   29068:	00100793          	li	a5,1
   2906c:	00f71863          	bne	a4,a5,2907c <alt_main+0x50>
   29070:	0002b7b7          	lui	a5,0x2b
   29074:	f3c78513          	add	a0,a5,-196 # 2af3c <__flash_rodata_start+0x1a0>
   29078:	b29ff0ef          	jal	28ba0 <alt_log_printf_proc>
   2907c:	00000013          	nop
   29080:	0002c7b7          	lui	a5,0x2c
   29084:	1d47a703          	lw	a4,468(a5) # 2c1d4 <alt_log_boot_on_flag>
   29088:	00100793          	li	a5,1
   2908c:	00f71863          	bne	a4,a5,2909c <alt_main+0x70>
   29090:	0002b7b7          	lui	a5,0x2b
   29094:	f7478513          	add	a0,a5,-140 # 2af74 <__flash_rodata_start+0x1d8>
   29098:	b09ff0ef          	jal	28ba0 <alt_log_printf_proc>
   2909c:	0002c7b7          	lui	a5,0x2c
   290a0:	1d47a703          	lw	a4,468(a5) # 2c1d4 <alt_log_boot_on_flag>
   290a4:	00100793          	li	a5,1
   290a8:	00f71863          	bne	a4,a5,290b8 <alt_main+0x8c>
   290ac:	0002b7b7          	lui	a5,0x2b
   290b0:	fac78513          	add	a0,a5,-84 # 2afac <__flash_rodata_start+0x210>
   290b4:	aedff0ef          	jal	28ba0 <alt_log_printf_proc>
   290b8:	314000ef          	jal	293cc <alt_sys_init>
   290bc:	0002c7b7          	lui	a5,0x2c
   290c0:	1d47a703          	lw	a4,468(a5) # 2c1d4 <alt_log_boot_on_flag>
   290c4:	00100793          	li	a5,1
   290c8:	00f71863          	bne	a4,a5,290d8 <alt_main+0xac>
   290cc:	0002b7b7          	lui	a5,0x2b
   290d0:	fd478513          	add	a0,a5,-44 # 2afd4 <__flash_rodata_start+0x238>
   290d4:	acdff0ef          	jal	28ba0 <alt_log_printf_proc>
   290d8:	0002c7b7          	lui	a5,0x2c
   290dc:	1d47a703          	lw	a4,468(a5) # 2c1d4 <alt_log_boot_on_flag>
   290e0:	00100793          	li	a5,1
   290e4:	00f71863          	bne	a4,a5,290f4 <alt_main+0xc8>
   290e8:	0002b7b7          	lui	a5,0x2b
   290ec:	ff878513          	add	a0,a5,-8 # 2aff8 <__flash_rodata_start+0x25c>
   290f0:	ab1ff0ef          	jal	28ba0 <alt_log_printf_proc>
   290f4:	0002d7b7          	lui	a5,0x2d
   290f8:	3747a703          	lw	a4,884(a5) # 2d374 <alt_argc>
   290fc:	0002d7b7          	lui	a5,0x2d
   29100:	3787a683          	lw	a3,888(a5) # 2d378 <alt_argv>
   29104:	0002d7b7          	lui	a5,0x2d
   29108:	37c7a783          	lw	a5,892(a5) # 2d37c <alt_envp>
   2910c:	00078613          	mv	a2,a5
   29110:	00068593          	mv	a1,a3
   29114:	00070513          	mv	a0,a4
   29118:	a5cff0ef          	jal	28374 <main>
   2911c:	0002c7b7          	lui	a5,0x2c
   29120:	1d47a703          	lw	a4,468(a5) # 2c1d4 <alt_log_boot_on_flag>
   29124:	00100793          	li	a5,1
   29128:	00f71863          	bne	a4,a5,29138 <alt_main+0x10c>
   2912c:	0002b7b7          	lui	a5,0x2b
   29130:	01878513          	add	a0,a5,24 # 2b018 <__flash_rodata_start+0x27c>
   29134:	a6dff0ef          	jal	28ba0 <alt_log_printf_proc>
   29138:	00000013          	nop
   2913c:	00c12083          	lw	ra,12(sp)
   29140:	00812403          	lw	s0,8(sp)
   29144:	01010113          	add	sp,sp,16
   29148:	00008067          	ret

0002914c <alt_putstr>:
   2914c:	fe010113          	add	sp,sp,-32
   29150:	00112e23          	sw	ra,28(sp)
   29154:	00812c23          	sw	s0,24(sp)
   29158:	02010413          	add	s0,sp,32
   2915c:	fea42623          	sw	a0,-20(s0)
   29160:	fec42503          	lw	a0,-20(s0)
   29164:	238010ef          	jal	2a39c <strlen>
   29168:	00050793          	mv	a5,a0
   2916c:	00000693          	li	a3,0
   29170:	00078613          	mv	a2,a5
   29174:	fec42583          	lw	a1,-20(s0)
   29178:	0002b7b7          	lui	a5,0x2b
   2917c:	13078513          	add	a0,a5,304 # 2b130 <DEBUG_JTAG>
   29180:	77c000ef          	jal	298fc <altera_avalon_jtag_uart_write>
   29184:	00050793          	mv	a5,a0
   29188:	00078513          	mv	a0,a5
   2918c:	01c12083          	lw	ra,28(sp)
   29190:	01812403          	lw	s0,24(sp)
   29194:	02010113          	add	sp,sp,32
   29198:	00008067          	ret

0002919c <alt_alarm_stop>:
   2919c:	fd010113          	add	sp,sp,-48
   291a0:	02812623          	sw	s0,44(sp)
   291a4:	03010413          	add	s0,sp,48
   291a8:	fca42e23          	sw	a0,-36(s0)
   291ac:	00800793          	li	a5,8
   291b0:	3007b7f3          	csrrc	a5,mstatus,a5
   291b4:	fef42623          	sw	a5,-20(s0)
   291b8:	fec42783          	lw	a5,-20(s0)
   291bc:	fef42023          	sw	a5,-32(s0)
   291c0:	fdc42783          	lw	a5,-36(s0)
   291c4:	fef42423          	sw	a5,-24(s0)
   291c8:	fe842783          	lw	a5,-24(s0)
   291cc:	0007a783          	lw	a5,0(a5)
   291d0:	fe842703          	lw	a4,-24(s0)
   291d4:	00472703          	lw	a4,4(a4)
   291d8:	00e7a223          	sw	a4,4(a5)
   291dc:	fe842783          	lw	a5,-24(s0)
   291e0:	0047a783          	lw	a5,4(a5)
   291e4:	fe842703          	lw	a4,-24(s0)
   291e8:	00072703          	lw	a4,0(a4)
   291ec:	00e7a023          	sw	a4,0(a5)
   291f0:	fe842783          	lw	a5,-24(s0)
   291f4:	fe842703          	lw	a4,-24(s0)
   291f8:	00e7a223          	sw	a4,4(a5)
   291fc:	fe842783          	lw	a5,-24(s0)
   29200:	fe842703          	lw	a4,-24(s0)
   29204:	00e7a023          	sw	a4,0(a5)
   29208:	00000013          	nop
   2920c:	fe042783          	lw	a5,-32(s0)
   29210:	fef42223          	sw	a5,-28(s0)
   29214:	fe442783          	lw	a5,-28(s0)
   29218:	0087f793          	and	a5,a5,8
   2921c:	3007a073          	csrs	mstatus,a5
   29220:	00000013          	nop
   29224:	00000013          	nop
   29228:	02c12403          	lw	s0,44(sp)
   2922c:	03010113          	add	sp,sp,48
   29230:	00008067          	ret

00029234 <alt_tick>:
   29234:	fe010113          	add	sp,sp,-32
   29238:	00112e23          	sw	ra,28(sp)
   2923c:	00812c23          	sw	s0,24(sp)
   29240:	01212a23          	sw	s2,20(sp)
   29244:	01312823          	sw	s3,16(sp)
   29248:	02010413          	add	s0,sp,32
   2924c:	0002c7b7          	lui	a5,0x2c
   29250:	1d878793          	add	a5,a5,472 # 2c1d8 <alt_alarm_list>
   29254:	0007a783          	lw	a5,0(a5)
   29258:	fef42223          	sw	a5,-28(s0)
   2925c:	0002d7b7          	lui	a5,0x2d
   29260:	3887a703          	lw	a4,904(a5) # 2d388 <_alt_nticks>
   29264:	38c7a783          	lw	a5,908(a5)
   29268:	00100513          	li	a0,1
   2926c:	00000593          	li	a1,0
   29270:	00a70633          	add	a2,a4,a0
   29274:	00060813          	mv	a6,a2
   29278:	00e83833          	sltu	a6,a6,a4
   2927c:	00b786b3          	add	a3,a5,a1
   29280:	00d807b3          	add	a5,a6,a3
   29284:	00078693          	mv	a3,a5
   29288:	00060713          	mv	a4,a2
   2928c:	00068793          	mv	a5,a3
   29290:	0002d6b7          	lui	a3,0x2d
   29294:	38e6a423          	sw	a4,904(a3) # 2d388 <_alt_nticks>
   29298:	38f6a623          	sw	a5,908(a3)
   2929c:	0c80006f          	j	29364 <alt_tick+0x130>
   292a0:	fe442783          	lw	a5,-28(s0)
   292a4:	0007a783          	lw	a5,0(a5)
   292a8:	fef42423          	sw	a5,-24(s0)
   292ac:	fe442783          	lw	a5,-28(s0)
   292b0:	0087a603          	lw	a2,8(a5)
   292b4:	00c7a683          	lw	a3,12(a5)
   292b8:	0002d7b7          	lui	a5,0x2d
   292bc:	3887a703          	lw	a4,904(a5) # 2d388 <_alt_nticks>
   292c0:	38c7a783          	lw	a5,908(a5)
   292c4:	00068513          	mv	a0,a3
   292c8:	00078593          	mv	a1,a5
   292cc:	08a5e863          	bltu	a1,a0,2935c <alt_tick+0x128>
   292d0:	00068513          	mv	a0,a3
   292d4:	00078593          	mv	a1,a5
   292d8:	00b51863          	bne	a0,a1,292e8 <alt_tick+0xb4>
   292dc:	00060693          	mv	a3,a2
   292e0:	00070793          	mv	a5,a4
   292e4:	06d7ec63          	bltu	a5,a3,2935c <alt_tick+0x128>
   292e8:	fe442783          	lw	a5,-28(s0)
   292ec:	0107a783          	lw	a5,16(a5)
   292f0:	fe442703          	lw	a4,-28(s0)
   292f4:	01472703          	lw	a4,20(a4)
   292f8:	00070513          	mv	a0,a4
   292fc:	000780e7          	jalr	a5
   29300:	fea42623          	sw	a0,-20(s0)
   29304:	fec42783          	lw	a5,-20(s0)
   29308:	00079863          	bnez	a5,29318 <alt_tick+0xe4>
   2930c:	fe442503          	lw	a0,-28(s0)
   29310:	e8dff0ef          	jal	2919c <alt_alarm_stop>
   29314:	0480006f          	j	2935c <alt_tick+0x128>
   29318:	fe442783          	lw	a5,-28(s0)
   2931c:	0087a703          	lw	a4,8(a5)
   29320:	00c7a783          	lw	a5,12(a5)
   29324:	fec42683          	lw	a3,-20(s0)
   29328:	00068913          	mv	s2,a3
   2932c:	00000993          	li	s3,0
   29330:	01270633          	add	a2,a4,s2
   29334:	00060593          	mv	a1,a2
   29338:	00e5b5b3          	sltu	a1,a1,a4
   2933c:	013786b3          	add	a3,a5,s3
   29340:	00d587b3          	add	a5,a1,a3
   29344:	00078693          	mv	a3,a5
   29348:	00060713          	mv	a4,a2
   2934c:	00068793          	mv	a5,a3
   29350:	fe442683          	lw	a3,-28(s0)
   29354:	00e6a423          	sw	a4,8(a3)
   29358:	00f6a623          	sw	a5,12(a3)
   2935c:	fe842783          	lw	a5,-24(s0)
   29360:	fef42223          	sw	a5,-28(s0)
   29364:	fe442703          	lw	a4,-28(s0)
   29368:	0002c7b7          	lui	a5,0x2c
   2936c:	1d878793          	add	a5,a5,472 # 2c1d8 <alt_alarm_list>
   29370:	f2f718e3          	bne	a4,a5,292a0 <alt_tick+0x6c>
   29374:	00000013          	nop
   29378:	00000013          	nop
   2937c:	01c12083          	lw	ra,28(sp)
   29380:	01812403          	lw	s0,24(sp)
   29384:	01412903          	lw	s2,20(sp)
   29388:	01012983          	lw	s3,16(sp)
   2938c:	02010113          	add	sp,sp,32
   29390:	00008067          	ret

00029394 <alt_irq_init>:
   29394:	fe010113          	add	sp,sp,-32
   29398:	00112e23          	sw	ra,28(sp)
   2939c:	00812c23          	sw	s0,24(sp)
   293a0:	02010413          	add	s0,sp,32
   293a4:	fea42623          	sw	a0,-20(s0)
   293a8:	381000ef          	jal	29f28 <intel_niosv_irq_init>
   293ac:	00800793          	li	a5,8
   293b0:	3007a073          	csrs	mstatus,a5
   293b4:	00000013          	nop
   293b8:	00000013          	nop
   293bc:	01c12083          	lw	ra,28(sp)
   293c0:	01812403          	lw	s0,24(sp)
   293c4:	02010113          	add	sp,sp,32
   293c8:	00008067          	ret

000293cc <alt_sys_init>:
   293cc:	fe010113          	add	sp,sp,-32
   293d0:	00112e23          	sw	ra,28(sp)
   293d4:	00812c23          	sw	s0,24(sp)
   293d8:	02010413          	add	s0,sp,32
   293dc:	00f00613          	li	a2,15
   293e0:	00000593          	li	a1,0
   293e4:	0002b7b7          	lui	a5,0x2b
   293e8:	13078513          	add	a0,a5,304 # 2b130 <DEBUG_JTAG>
   293ec:	064000ef          	jal	29450 <altera_avalon_jtag_uart_init>
   293f0:	00000013          	nop
   293f4:	3e800793          	li	a5,1000
   293f8:	fef42623          	sw	a5,-20(s0)
   293fc:	0002d7b7          	lui	a5,0x2d
   29400:	3807a783          	lw	a5,896(a5) # 2d380 <_alt_tick_rate>
   29404:	00079a63          	bnez	a5,29418 <alt_sys_init+0x4c>
   29408:	0002d7b7          	lui	a5,0x2d
   2940c:	fec42703          	lw	a4,-20(s0)
   29410:	38e7a023          	sw	a4,896(a5) # 2d380 <_alt_tick_rate>
   29414:	0080006f          	j	2941c <alt_sys_init+0x50>
   29418:	00000013          	nop
   2941c:	0002a7b7          	lui	a5,0x2a
   29420:	19078793          	add	a5,a5,400 # 2a190 <alt_niosv_timer_sc_isr>
   29424:	fef42423          	sw	a5,-24(s0)
   29428:	0002d7b7          	lui	a5,0x2d
   2942c:	fe842703          	lw	a4,-24(s0)
   29430:	34e7ae23          	sw	a4,860(a5) # 2d35c <alt_niosv_timer_interrupt_handler>
   29434:	00000013          	nop
   29438:	609000ef          	jal	2a240 <alt_niosv_mtimecmp_interrupt_init>
   2943c:	00000013          	nop
   29440:	01c12083          	lw	ra,28(sp)
   29444:	01812403          	lw	s0,24(sp)
   29448:	02010113          	add	sp,sp,32
   2944c:	00008067          	ret

00029450 <altera_avalon_jtag_uart_init>:
   29450:	fd010113          	add	sp,sp,-48
   29454:	02112623          	sw	ra,44(sp)
   29458:	02812423          	sw	s0,40(sp)
   2945c:	03010413          	add	s0,sp,48
   29460:	fca42e23          	sw	a0,-36(s0)
   29464:	fcb42c23          	sw	a1,-40(s0)
   29468:	fcc42a23          	sw	a2,-44(s0)
   2946c:	fdc42783          	lw	a5,-36(s0)
   29470:	00100713          	li	a4,1
   29474:	02e7a023          	sw	a4,32(a5)
   29478:	fdc42783          	lw	a5,-36(s0)
   2947c:	0207a783          	lw	a5,32(a5)
   29480:	fef42623          	sw	a5,-20(s0)
   29484:	fdc42783          	lw	a5,-36(s0)
   29488:	0007a783          	lw	a5,0(a5)
   2948c:	00478793          	add	a5,a5,4
   29490:	00078713          	mv	a4,a5
   29494:	fec42783          	lw	a5,-20(s0)
   29498:	00f72023          	sw	a5,0(a4)
   2949c:	fd842503          	lw	a0,-40(s0)
   294a0:	fd442583          	lw	a1,-44(s0)
   294a4:	00000713          	li	a4,0
   294a8:	fdc42683          	lw	a3,-36(s0)
   294ac:	000297b7          	lui	a5,0x29
   294b0:	58478613          	add	a2,a5,1412 # 29584 <altera_avalon_jtag_uart_irq>
   294b4:	0a5000ef          	jal	29d58 <alt_ic_isr_register>
   294b8:	fdc42783          	lw	a5,-36(s0)
   294bc:	0207a223          	sw	zero,36(a5)
   294c0:	fdc42783          	lw	a5,-36(s0)
   294c4:	00878713          	add	a4,a5,8
   294c8:	0002d7b7          	lui	a5,0x2d
   294cc:	3807a583          	lw	a1,896(a5) # 2d380 <_alt_tick_rate>
   294d0:	fdc42683          	lw	a3,-36(s0)
   294d4:	000297b7          	lui	a5,0x29
   294d8:	7d478613          	add	a2,a5,2004 # 297d4 <altera_avalon_jtag_uart_timeout>
   294dc:	00070513          	mv	a0,a4
   294e0:	6d4000ef          	jal	29bb4 <alt_alarm_start>
   294e4:	00050793          	mv	a5,a0
   294e8:	0007da63          	bgez	a5,294fc <altera_avalon_jtag_uart_init+0xac>
   294ec:	fdc42783          	lw	a5,-36(s0)
   294f0:	80000737          	lui	a4,0x80000
   294f4:	fff70713          	add	a4,a4,-1 # 7fffffff <__alt_data_end+0x7ffd1bff>
   294f8:	00e7a223          	sw	a4,4(a5)
   294fc:	0002d7b7          	lui	a5,0x2d
   29500:	3667c783          	lbu	a5,870(a5) # 2d366 <alt_log_jtag_uart_alarm_on_flag>
   29504:	0ff7f713          	zext.b	a4,a5
   29508:	00100793          	li	a5,1
   2950c:	02f71e63          	bne	a4,a5,29548 <altera_avalon_jtag_uart_init+0xf8>
   29510:	0002d7b7          	lui	a5,0x2d
   29514:	3807a783          	lw	a5,896(a5) # 2d380 <_alt_tick_rate>
   29518:	00a00593          	li	a1,10
   2951c:	00078513          	mv	a0,a5
   29520:	7e1000ef          	jal	2a500 <__hidden___udivsi3>
   29524:	00050793          	mv	a5,a0
   29528:	00078713          	mv	a4,a5
   2952c:	fdc42683          	lw	a3,-36(s0)
   29530:	000297b7          	lui	a5,0x29
   29534:	c4478613          	add	a2,a5,-956 # 28c44 <altera_avalon_jtag_uart_report_log>
   29538:	00070593          	mv	a1,a4
   2953c:	0002d7b7          	lui	a5,0x2d
   29540:	43878513          	add	a0,a5,1080 # 2d438 <alt_log_jtag_uart_alarm_1>
   29544:	670000ef          	jal	29bb4 <alt_alarm_start>
   29548:	0002d7b7          	lui	a5,0x2d
   2954c:	3687c783          	lbu	a5,872(a5) # 2d368 <alt_log_jtag_uart_startup_info_on_flag>
   29550:	0ff7f713          	zext.b	a4,a5
   29554:	00100793          	li	a5,1
   29558:	00f71c63          	bne	a4,a5,29570 <altera_avalon_jtag_uart_init+0x120>
   2955c:	fdc42783          	lw	a5,-36(s0)
   29560:	0007a783          	lw	a5,0(a5)
   29564:	00078593          	mv	a1,a5
   29568:	fdc42503          	lw	a0,-36(s0)
   2956c:	83dff0ef          	jal	28da8 <alt_log_jtag_uart_startup_info>
   29570:	00000013          	nop
   29574:	02c12083          	lw	ra,44(sp)
   29578:	02812403          	lw	s0,40(sp)
   2957c:	03010113          	add	sp,sp,48
   29580:	00008067          	ret

00029584 <altera_avalon_jtag_uart_irq>:
   29584:	fa010113          	add	sp,sp,-96
   29588:	04112e23          	sw	ra,92(sp)
   2958c:	04812c23          	sw	s0,88(sp)
   29590:	06010413          	add	s0,sp,96
   29594:	faa42623          	sw	a0,-84(s0)
   29598:	fac42783          	lw	a5,-84(s0)
   2959c:	fcf42223          	sw	a5,-60(s0)
   295a0:	fc442783          	lw	a5,-60(s0)
   295a4:	0007a783          	lw	a5,0(a5)
   295a8:	fcf42423          	sw	a5,-56(s0)
   295ac:	fa042c23          	sw	zero,-72(s0)
   295b0:	fc842783          	lw	a5,-56(s0)
   295b4:	fc442583          	lw	a1,-60(s0)
   295b8:	00078513          	mv	a0,a5
   295bc:	835ff0ef          	jal	28df0 <alt_log_jtag_uart_isr_proc>
   295c0:	fc842783          	lw	a5,-56(s0)
   295c4:	00478793          	add	a5,a5,4
   295c8:	0007a783          	lw	a5,0(a5)
   295cc:	fcf42623          	sw	a5,-52(s0)
   295d0:	fcc42783          	lw	a5,-52(s0)
   295d4:	fcf42823          	sw	a5,-48(s0)
   295d8:	fd042783          	lw	a5,-48(s0)
   295dc:	3007f793          	and	a5,a5,768
   295e0:	1c078e63          	beqz	a5,297bc <altera_avalon_jtag_uart_irq+0x238>
   295e4:	fd042783          	lw	a5,-48(s0)
   295e8:	1007f793          	and	a5,a5,256
   295ec:	0e078663          	beqz	a5,296d8 <altera_avalon_jtag_uart_irq+0x154>
   295f0:	000107b7          	lui	a5,0x10
   295f4:	faf42e23          	sw	a5,-68(s0)
   295f8:	fc442783          	lw	a5,-60(s0)
   295fc:	0287a783          	lw	a5,40(a5) # 10028 <__reset-0x17fd8>
   29600:	00178793          	add	a5,a5,1
   29604:	7ff7f793          	and	a5,a5,2047
   29608:	fcf42a23          	sw	a5,-44(s0)
   2960c:	fc442783          	lw	a5,-60(s0)
   29610:	02c7a783          	lw	a5,44(a5)
   29614:	fd442703          	lw	a4,-44(s0)
   29618:	06f70263          	beq	a4,a5,2967c <altera_avalon_jtag_uart_irq+0xf8>
   2961c:	fc842783          	lw	a5,-56(s0)
   29620:	0007a783          	lw	a5,0(a5)
   29624:	fcf42c23          	sw	a5,-40(s0)
   29628:	fd842783          	lw	a5,-40(s0)
   2962c:	faf42e23          	sw	a5,-68(s0)
   29630:	fbc42703          	lw	a4,-68(s0)
   29634:	000087b7          	lui	a5,0x8
   29638:	00f777b3          	and	a5,a4,a5
   2963c:	04078463          	beqz	a5,29684 <altera_avalon_jtag_uart_irq+0x100>
   29640:	fc442783          	lw	a5,-60(s0)
   29644:	0287a783          	lw	a5,40(a5) # 8028 <__reset-0x1ffd8>
   29648:	fbc42703          	lw	a4,-68(s0)
   2964c:	0ff77713          	zext.b	a4,a4
   29650:	fc442683          	lw	a3,-60(s0)
   29654:	00f687b3          	add	a5,a3,a5
   29658:	02e78c23          	sb	a4,56(a5)
   2965c:	fc442783          	lw	a5,-60(s0)
   29660:	0287a783          	lw	a5,40(a5)
   29664:	00178793          	add	a5,a5,1
   29668:	7ff7f713          	and	a4,a5,2047
   2966c:	fc442783          	lw	a5,-60(s0)
   29670:	02e7a423          	sw	a4,40(a5)
   29674:	00000013          	nop
   29678:	f81ff06f          	j	295f8 <altera_avalon_jtag_uart_irq+0x74>
   2967c:	00000013          	nop
   29680:	0080006f          	j	29688 <altera_avalon_jtag_uart_irq+0x104>
   29684:	00000013          	nop
   29688:	fbc42703          	lw	a4,-68(s0)
   2968c:	000107b7          	lui	a5,0x10
   29690:	04f76463          	bltu	a4,a5,296d8 <altera_avalon_jtag_uart_irq+0x154>
   29694:	fc442783          	lw	a5,-60(s0)
   29698:	0207a783          	lw	a5,32(a5) # 10020 <__reset-0x17fe0>
   2969c:	ffe7f713          	and	a4,a5,-2
   296a0:	fc442783          	lw	a5,-60(s0)
   296a4:	02e7a023          	sw	a4,32(a5)
   296a8:	fc442783          	lw	a5,-60(s0)
   296ac:	0207a783          	lw	a5,32(a5)
   296b0:	fcf42e23          	sw	a5,-36(s0)
   296b4:	fc842783          	lw	a5,-56(s0)
   296b8:	00478793          	add	a5,a5,4
   296bc:	00078713          	mv	a4,a5
   296c0:	fdc42783          	lw	a5,-36(s0)
   296c4:	00f72023          	sw	a5,0(a4)
   296c8:	fc842783          	lw	a5,-56(s0)
   296cc:	00478793          	add	a5,a5,4
   296d0:	0007a783          	lw	a5,0(a5)
   296d4:	fef42023          	sw	a5,-32(s0)
   296d8:	fd042783          	lw	a5,-48(s0)
   296dc:	2007f793          	and	a5,a5,512
   296e0:	ee0780e3          	beqz	a5,295c0 <altera_avalon_jtag_uart_irq+0x3c>
   296e4:	fd042783          	lw	a5,-48(s0)
   296e8:	0107d793          	srl	a5,a5,0x10
   296ec:	fcf42023          	sw	a5,-64(s0)
   296f0:	05c0006f          	j	2974c <altera_avalon_jtag_uart_irq+0x1c8>
   296f4:	fc442783          	lw	a5,-60(s0)
   296f8:	0347a783          	lw	a5,52(a5)
   296fc:	fc442703          	lw	a4,-60(s0)
   29700:	00f707b3          	add	a5,a4,a5
   29704:	00001737          	lui	a4,0x1
   29708:	00f707b3          	add	a5,a4,a5
   2970c:	8387c783          	lbu	a5,-1992(a5)
   29710:	fef42223          	sw	a5,-28(s0)
   29714:	fc842783          	lw	a5,-56(s0)
   29718:	fe442703          	lw	a4,-28(s0)
   2971c:	00e7a023          	sw	a4,0(a5)
   29720:	fc442783          	lw	a5,-60(s0)
   29724:	0347a783          	lw	a5,52(a5)
   29728:	00178793          	add	a5,a5,1
   2972c:	7ff7f713          	and	a4,a5,2047
   29730:	fc442783          	lw	a5,-60(s0)
   29734:	02e7aa23          	sw	a4,52(a5)
   29738:	00100793          	li	a5,1
   2973c:	faf42c23          	sw	a5,-72(s0)
   29740:	fc042783          	lw	a5,-64(s0)
   29744:	fff78793          	add	a5,a5,-1
   29748:	fcf42023          	sw	a5,-64(s0)
   2974c:	fc042783          	lw	a5,-64(s0)
   29750:	00078c63          	beqz	a5,29768 <altera_avalon_jtag_uart_irq+0x1e4>
   29754:	fc442783          	lw	a5,-60(s0)
   29758:	0347a703          	lw	a4,52(a5)
   2975c:	fc442783          	lw	a5,-60(s0)
   29760:	0307a783          	lw	a5,48(a5)
   29764:	f8f718e3          	bne	a4,a5,296f4 <altera_avalon_jtag_uart_irq+0x170>
   29768:	fc042783          	lw	a5,-64(s0)
   2976c:	e4078ae3          	beqz	a5,295c0 <altera_avalon_jtag_uart_irq+0x3c>
   29770:	fc442783          	lw	a5,-60(s0)
   29774:	0207a783          	lw	a5,32(a5)
   29778:	ffd7f713          	and	a4,a5,-3
   2977c:	fc442783          	lw	a5,-60(s0)
   29780:	02e7a023          	sw	a4,32(a5)
   29784:	fc442783          	lw	a5,-60(s0)
   29788:	0207a783          	lw	a5,32(a5)
   2978c:	fef42423          	sw	a5,-24(s0)
   29790:	fc442783          	lw	a5,-60(s0)
   29794:	0007a783          	lw	a5,0(a5)
   29798:	00478793          	add	a5,a5,4
   2979c:	00078713          	mv	a4,a5
   297a0:	fe842783          	lw	a5,-24(s0)
   297a4:	00f72023          	sw	a5,0(a4) # 1000 <__reset-0x27000>
   297a8:	fc842783          	lw	a5,-56(s0)
   297ac:	00478793          	add	a5,a5,4
   297b0:	0007a783          	lw	a5,0(a5)
   297b4:	fef42623          	sw	a5,-20(s0)
   297b8:	e09ff06f          	j	295c0 <altera_avalon_jtag_uart_irq+0x3c>
   297bc:	00000013          	nop
   297c0:	00000013          	nop
   297c4:	05c12083          	lw	ra,92(sp)
   297c8:	05812403          	lw	s0,88(sp)
   297cc:	06010113          	add	sp,sp,96
   297d0:	00008067          	ret

000297d4 <altera_avalon_jtag_uart_timeout>:
   297d4:	fd010113          	add	sp,sp,-48
   297d8:	02812623          	sw	s0,44(sp)
   297dc:	03010413          	add	s0,sp,48
   297e0:	fca42e23          	sw	a0,-36(s0)
   297e4:	fdc42783          	lw	a5,-36(s0)
   297e8:	fef42023          	sw	a5,-32(s0)
   297ec:	fe042783          	lw	a5,-32(s0)
   297f0:	0007a783          	lw	a5,0(a5)
   297f4:	00478793          	add	a5,a5,4
   297f8:	0007a783          	lw	a5,0(a5)
   297fc:	fef42223          	sw	a5,-28(s0)
   29800:	fe442783          	lw	a5,-28(s0)
   29804:	fef42423          	sw	a5,-24(s0)
   29808:	fe842783          	lw	a5,-24(s0)
   2980c:	4007f793          	and	a5,a5,1024
   29810:	02078c63          	beqz	a5,29848 <altera_avalon_jtag_uart_timeout+0x74>
   29814:	fe042783          	lw	a5,-32(s0)
   29818:	0207a783          	lw	a5,32(a5)
   2981c:	4007e793          	or	a5,a5,1024
   29820:	fef42623          	sw	a5,-20(s0)
   29824:	fe042783          	lw	a5,-32(s0)
   29828:	0007a783          	lw	a5,0(a5)
   2982c:	00478793          	add	a5,a5,4
   29830:	00078713          	mv	a4,a5
   29834:	fec42783          	lw	a5,-20(s0)
   29838:	00f72023          	sw	a5,0(a4)
   2983c:	fe042783          	lw	a5,-32(s0)
   29840:	0207a223          	sw	zero,36(a5)
   29844:	0340006f          	j	29878 <altera_avalon_jtag_uart_timeout+0xa4>
   29848:	fe042783          	lw	a5,-32(s0)
   2984c:	0247a703          	lw	a4,36(a5)
   29850:	800007b7          	lui	a5,0x80000
   29854:	ffc78793          	add	a5,a5,-4 # 7ffffffc <__alt_data_end+0x7ffd1bfc>
   29858:	02e7e063          	bltu	a5,a4,29878 <altera_avalon_jtag_uart_timeout+0xa4>
   2985c:	fe042783          	lw	a5,-32(s0)
   29860:	0247a783          	lw	a5,36(a5)
   29864:	00178713          	add	a4,a5,1
   29868:	fe042783          	lw	a5,-32(s0)
   2986c:	02e7a223          	sw	a4,36(a5)
   29870:	fe042783          	lw	a5,-32(s0)
   29874:	0247a783          	lw	a5,36(a5)
   29878:	0002d7b7          	lui	a5,0x2d
   2987c:	3807a783          	lw	a5,896(a5) # 2d380 <_alt_tick_rate>
   29880:	00078513          	mv	a0,a5
   29884:	02c12403          	lw	s0,44(sp)
   29888:	03010113          	add	sp,sp,48
   2988c:	00008067          	ret

00029890 <altera_avalon_jtag_uart_close>:
   29890:	fe010113          	add	sp,sp,-32
   29894:	00812e23          	sw	s0,28(sp)
   29898:	02010413          	add	s0,sp,32
   2989c:	fea42623          	sw	a0,-20(s0)
   298a0:	feb42423          	sw	a1,-24(s0)
   298a4:	01c0006f          	j	298c0 <altera_avalon_jtag_uart_close+0x30>
   298a8:	fe842703          	lw	a4,-24(s0)
   298ac:	000047b7          	lui	a5,0x4
   298b0:	00f777b3          	and	a5,a4,a5
   298b4:	00078663          	beqz	a5,298c0 <altera_avalon_jtag_uart_close+0x30>
   298b8:	ff500793          	li	a5,-11
   298bc:	0300006f          	j	298ec <altera_avalon_jtag_uart_close+0x5c>
   298c0:	fec42783          	lw	a5,-20(s0)
   298c4:	0347a703          	lw	a4,52(a5) # 4034 <__reset-0x23fcc>
   298c8:	fec42783          	lw	a5,-20(s0)
   298cc:	0307a783          	lw	a5,48(a5)
   298d0:	00f70c63          	beq	a4,a5,298e8 <altera_avalon_jtag_uart_close+0x58>
   298d4:	fec42783          	lw	a5,-20(s0)
   298d8:	0247a703          	lw	a4,36(a5)
   298dc:	fec42783          	lw	a5,-20(s0)
   298e0:	0047a783          	lw	a5,4(a5)
   298e4:	fcf762e3          	bltu	a4,a5,298a8 <altera_avalon_jtag_uart_close+0x18>
   298e8:	00000793          	li	a5,0
   298ec:	00078513          	mv	a0,a5
   298f0:	01c12403          	lw	s0,28(sp)
   298f4:	02010113          	add	sp,sp,32
   298f8:	00008067          	ret

000298fc <altera_avalon_jtag_uart_write>:
   298fc:	fc010113          	add	sp,sp,-64
   29900:	02112e23          	sw	ra,60(sp)
   29904:	02812c23          	sw	s0,56(sp)
   29908:	04010413          	add	s0,sp,64
   2990c:	fca42623          	sw	a0,-52(s0)
   29910:	fcb42423          	sw	a1,-56(s0)
   29914:	fcc42223          	sw	a2,-60(s0)
   29918:	fcd42023          	sw	a3,-64(s0)
   2991c:	fc042823          	sw	zero,-48(s0)
   29920:	fc842783          	lw	a5,-56(s0)
   29924:	fcf42c23          	sw	a5,-40(s0)
   29928:	0ec0006f          	j	29a14 <altera_avalon_jtag_uart_write+0x118>
   2992c:	fcc42783          	lw	a5,-52(s0)
   29930:	0307a783          	lw	a5,48(a5)
   29934:	fcf42e23          	sw	a5,-36(s0)
   29938:	fcc42783          	lw	a5,-52(s0)
   2993c:	0347a783          	lw	a5,52(a5)
   29940:	fcf42823          	sw	a5,-48(s0)
   29944:	fdc42703          	lw	a4,-36(s0)
   29948:	fd042783          	lw	a5,-48(s0)
   2994c:	00f77e63          	bgeu	a4,a5,29968 <altera_avalon_jtag_uart_write+0x6c>
   29950:	fd042703          	lw	a4,-48(s0)
   29954:	fdc42783          	lw	a5,-36(s0)
   29958:	40f707b3          	sub	a5,a4,a5
   2995c:	fff78793          	add	a5,a5,-1
   29960:	fcf42a23          	sw	a5,-44(s0)
   29964:	0340006f          	j	29998 <altera_avalon_jtag_uart_write+0x9c>
   29968:	fd042783          	lw	a5,-48(s0)
   2996c:	00078e63          	beqz	a5,29988 <altera_avalon_jtag_uart_write+0x8c>
   29970:	000017b7          	lui	a5,0x1
   29974:	80078713          	add	a4,a5,-2048 # 800 <__reset-0x27800>
   29978:	fdc42783          	lw	a5,-36(s0)
   2997c:	40f707b3          	sub	a5,a4,a5
   29980:	fcf42a23          	sw	a5,-44(s0)
   29984:	0140006f          	j	29998 <altera_avalon_jtag_uart_write+0x9c>
   29988:	7ff00713          	li	a4,2047
   2998c:	fdc42783          	lw	a5,-36(s0)
   29990:	40f707b3          	sub	a5,a4,a5
   29994:	fcf42a23          	sw	a5,-44(s0)
   29998:	fd442783          	lw	a5,-44(s0)
   2999c:	08078263          	beqz	a5,29a20 <altera_avalon_jtag_uart_write+0x124>
   299a0:	fc442783          	lw	a5,-60(s0)
   299a4:	fd442703          	lw	a4,-44(s0)
   299a8:	00e7f663          	bgeu	a5,a4,299b4 <altera_avalon_jtag_uart_write+0xb8>
   299ac:	fc442783          	lw	a5,-60(s0)
   299b0:	fcf42a23          	sw	a5,-44(s0)
   299b4:	fcc42703          	lw	a4,-52(s0)
   299b8:	000017b7          	lui	a5,0x1
   299bc:	83878793          	add	a5,a5,-1992 # 838 <__reset-0x277c8>
   299c0:	00f70733          	add	a4,a4,a5
   299c4:	fdc42783          	lw	a5,-36(s0)
   299c8:	00f707b3          	add	a5,a4,a5
   299cc:	fd442603          	lw	a2,-44(s0)
   299d0:	fc842583          	lw	a1,-56(s0)
   299d4:	00078513          	mv	a0,a5
   299d8:	1a1000ef          	jal	2a378 <memcpy>
   299dc:	fc842703          	lw	a4,-56(s0)
   299e0:	fd442783          	lw	a5,-44(s0)
   299e4:	00f707b3          	add	a5,a4,a5
   299e8:	fcf42423          	sw	a5,-56(s0)
   299ec:	fc442703          	lw	a4,-60(s0)
   299f0:	fd442783          	lw	a5,-44(s0)
   299f4:	40f707b3          	sub	a5,a4,a5
   299f8:	fcf42223          	sw	a5,-60(s0)
   299fc:	fdc42703          	lw	a4,-36(s0)
   29a00:	fd442783          	lw	a5,-44(s0)
   29a04:	00f707b3          	add	a5,a4,a5
   29a08:	7ff7f713          	and	a4,a5,2047
   29a0c:	fcc42783          	lw	a5,-52(s0)
   29a10:	02e7a823          	sw	a4,48(a5)
   29a14:	fc442783          	lw	a5,-60(s0)
   29a18:	f0f04ae3          	bgtz	a5,2992c <altera_avalon_jtag_uart_write+0x30>
   29a1c:	0080006f          	j	29a24 <altera_avalon_jtag_uart_write+0x128>
   29a20:	00000013          	nop
   29a24:	00800793          	li	a5,8
   29a28:	3007b7f3          	csrrc	a5,mstatus,a5
   29a2c:	fef42623          	sw	a5,-20(s0)
   29a30:	fec42783          	lw	a5,-20(s0)
   29a34:	fef42023          	sw	a5,-32(s0)
   29a38:	fcc42783          	lw	a5,-52(s0)
   29a3c:	0207a783          	lw	a5,32(a5)
   29a40:	0027e713          	or	a4,a5,2
   29a44:	fcc42783          	lw	a5,-52(s0)
   29a48:	02e7a023          	sw	a4,32(a5)
   29a4c:	fcc42783          	lw	a5,-52(s0)
   29a50:	0207a783          	lw	a5,32(a5)
   29a54:	fef42223          	sw	a5,-28(s0)
   29a58:	fcc42783          	lw	a5,-52(s0)
   29a5c:	0007a783          	lw	a5,0(a5)
   29a60:	00478793          	add	a5,a5,4
   29a64:	00078713          	mv	a4,a5
   29a68:	fe442783          	lw	a5,-28(s0)
   29a6c:	00f72023          	sw	a5,0(a4)
   29a70:	fe042783          	lw	a5,-32(s0)
   29a74:	fef42423          	sw	a5,-24(s0)
   29a78:	fe842783          	lw	a5,-24(s0)
   29a7c:	0087f793          	and	a5,a5,8
   29a80:	3007a073          	csrs	mstatus,a5
   29a84:	00000013          	nop
   29a88:	fc442783          	lw	a5,-60(s0)
   29a8c:	04f05463          	blez	a5,29ad4 <altera_avalon_jtag_uart_write+0x1d8>
   29a90:	fc042703          	lw	a4,-64(s0)
   29a94:	000047b7          	lui	a5,0x4
   29a98:	00f777b3          	and	a5,a4,a5
   29a9c:	04079263          	bnez	a5,29ae0 <altera_avalon_jtag_uart_write+0x1e4>
   29aa0:	00000013          	nop
   29aa4:	fcc42783          	lw	a5,-52(s0)
   29aa8:	0347a783          	lw	a5,52(a5) # 4034 <__reset-0x23fcc>
   29aac:	fd042703          	lw	a4,-48(s0)
   29ab0:	00f71c63          	bne	a4,a5,29ac8 <altera_avalon_jtag_uart_write+0x1cc>
   29ab4:	fcc42783          	lw	a5,-52(s0)
   29ab8:	0247a703          	lw	a4,36(a5)
   29abc:	fcc42783          	lw	a5,-52(s0)
   29ac0:	0047a783          	lw	a5,4(a5)
   29ac4:	fef760e3          	bltu	a4,a5,29aa4 <altera_avalon_jtag_uart_write+0x1a8>
   29ac8:	fcc42783          	lw	a5,-52(s0)
   29acc:	0247a783          	lw	a5,36(a5)
   29ad0:	00079c63          	bnez	a5,29ae8 <altera_avalon_jtag_uart_write+0x1ec>
   29ad4:	fc442783          	lw	a5,-60(s0)
   29ad8:	f2f04ee3          	bgtz	a5,29a14 <altera_avalon_jtag_uart_write+0x118>
   29adc:	0100006f          	j	29aec <altera_avalon_jtag_uart_write+0x1f0>
   29ae0:	00000013          	nop
   29ae4:	0080006f          	j	29aec <altera_avalon_jtag_uart_write+0x1f0>
   29ae8:	00000013          	nop
   29aec:	fc842703          	lw	a4,-56(s0)
   29af0:	fd842783          	lw	a5,-40(s0)
   29af4:	00f70a63          	beq	a4,a5,29b08 <altera_avalon_jtag_uart_write+0x20c>
   29af8:	fc842703          	lw	a4,-56(s0)
   29afc:	fd842783          	lw	a5,-40(s0)
   29b00:	40f707b3          	sub	a5,a4,a5
   29b04:	0640006f          	j	29b68 <altera_avalon_jtag_uart_write+0x26c>
   29b08:	fc042703          	lw	a4,-64(s0)
   29b0c:	000047b7          	lui	a5,0x4
   29b10:	00f777b3          	and	a5,a4,a5
   29b14:	00078663          	beqz	a5,29b20 <altera_avalon_jtag_uart_write+0x224>
   29b18:	ff500793          	li	a5,-11
   29b1c:	04c0006f          	j	29b68 <altera_avalon_jtag_uart_write+0x26c>
   29b20:	fcc42783          	lw	a5,-52(s0)
   29b24:	0247a703          	lw	a4,36(a5) # 4024 <__reset-0x23fdc>
   29b28:	fcc42783          	lw	a5,-52(s0)
   29b2c:	0047a783          	lw	a5,4(a5)
   29b30:	02f76a63          	bltu	a4,a5,29b64 <altera_avalon_jtag_uart_write+0x268>
   29b34:	fcc42783          	lw	a5,-52(s0)
   29b38:	0207a823          	sw	zero,48(a5)
   29b3c:	fcc42783          	lw	a5,-52(s0)
   29b40:	0307a703          	lw	a4,48(a5)
   29b44:	fcc42783          	lw	a5,-52(s0)
   29b48:	02e7aa23          	sw	a4,52(a5)
   29b4c:	fc842703          	lw	a4,-56(s0)
   29b50:	fd842783          	lw	a5,-40(s0)
   29b54:	40f70733          	sub	a4,a4,a5
   29b58:	fc442783          	lw	a5,-60(s0)
   29b5c:	00f707b3          	add	a5,a4,a5
   29b60:	0080006f          	j	29b68 <altera_avalon_jtag_uart_write+0x26c>
   29b64:	ffb00793          	li	a5,-5
   29b68:	00078513          	mv	a0,a5
   29b6c:	03c12083          	lw	ra,60(sp)
   29b70:	03812403          	lw	s0,56(sp)
   29b74:	04010113          	add	sp,sp,64
   29b78:	00008067          	ret

00029b7c <tx_log_str>:
        .global tx_log_str
tx_log_str:
tx_next_char:
    /* if pointer points to null, return .
     * a0 is the pointer to the str to be printed, set by ALT_LOG_PUTS */
	lb      t1, (a0)
   29b7c:	00050303          	lb	t1,0(a0)
	beqz    t1, end_tx
   29b80:	02030863          	beqz	t1,29bb0 <end_tx>
	/* 
     * Check device transmit ready
     *    UART, ALT_LOG_PRINT_MSK == 0x40
     *    JTAG UART, ALT_LOG_PRINT_MSK == 0xFFFF0000
     */
    li      t2, ALT_LOG_PRINT_MSK
   29b84:	ffff03b7          	lui	t2,0xffff0

00029b88 <wait_tx_ready_loop>:

wait_tx_ready_loop:
    /* load base uart / jtag uart address into t0 */
    li      t0, ALT_LOG_PORT_BASE
   29b88:	000302b7          	lui	t0,0x30
   29b8c:	06028293          	add	t0,t0,96 # 30060 <__alt_data_end+0x1c60>

    lw      t0, ALT_LOG_PRINT_REG_OFFSET(t0)
   29b90:	0042a283          	lw	t0,4(t0)
    and     t0, t0, t2
   29b94:	0072f2b3          	and	t0,t0,t2
    beqz    t0, wait_tx_ready_loop	
   29b98:	fe0288e3          	beqz	t0,29b88 <wait_tx_ready_loop>

    /* load base uart / jtag uart address into t0 */
    li      t0, ALT_LOG_PORT_BASE
   29b9c:	000302b7          	lui	t0,0x30
   29ba0:	06028293          	add	t0,t0,96 # 30060 <__alt_data_end+0x1c60>

	/* write char */
	sw      t1, ALT_LOG_PRINT_TXDATA_REG_OFFSET(t0)		
   29ba4:	0062a023          	sw	t1,0(t0)

	/* advance string pointer */
	addi    a0, a0, 1
   29ba8:	00150513          	add	a0,a0,1
	j       tx_next_char
   29bac:	fd1ff06f          	j	29b7c <tx_log_str>

00029bb0 <end_tx>:

end_tx:	
    ret
   29bb0:	00008067          	ret

00029bb4 <alt_alarm_start>:
   29bb4:	fc010113          	add	sp,sp,-64
   29bb8:	02812e23          	sw	s0,60(sp)
   29bbc:	04010413          	add	s0,sp,64
   29bc0:	fca42623          	sw	a0,-52(s0)
   29bc4:	fcb42423          	sw	a1,-56(s0)
   29bc8:	fcc42223          	sw	a2,-60(s0)
   29bcc:	fcd42023          	sw	a3,-64(s0)
   29bd0:	00000713          	li	a4,0
   29bd4:	00000793          	li	a5,0
   29bd8:	fee42423          	sw	a4,-24(s0)
   29bdc:	fef42623          	sw	a5,-20(s0)
   29be0:	0002d7b7          	lui	a5,0x2d
   29be4:	3807a783          	lw	a5,896(a5) # 2d380 <_alt_tick_rate>
   29be8:	12078263          	beqz	a5,29d0c <alt_alarm_start+0x158>
   29bec:	fcc42783          	lw	a5,-52(s0)
   29bf0:	10078a63          	beqz	a5,29d04 <alt_alarm_start+0x150>
   29bf4:	fcc42783          	lw	a5,-52(s0)
   29bf8:	fc442703          	lw	a4,-60(s0)
   29bfc:	00e7a823          	sw	a4,16(a5)
   29c00:	fcc42783          	lw	a5,-52(s0)
   29c04:	fc042703          	lw	a4,-64(s0)
   29c08:	00e7aa23          	sw	a4,20(a5)
   29c0c:	00800793          	li	a5,8
   29c10:	3007b7f3          	csrrc	a5,mstatus,a5
   29c14:	fef42223          	sw	a5,-28(s0)
   29c18:	fe442783          	lw	a5,-28(s0)
   29c1c:	fcf42a23          	sw	a5,-44(s0)
   29c20:	0002d7b7          	lui	a5,0x2d
   29c24:	3887a703          	lw	a4,904(a5) # 2d388 <_alt_nticks>
   29c28:	38c7a783          	lw	a5,908(a5)
   29c2c:	fee42423          	sw	a4,-24(s0)
   29c30:	fef42623          	sw	a5,-20(s0)
   29c34:	fc842783          	lw	a5,-56(s0)
   29c38:	00078813          	mv	a6,a5
   29c3c:	00000893          	li	a7,0
   29c40:	fe842603          	lw	a2,-24(s0)
   29c44:	fec42683          	lw	a3,-20(s0)
   29c48:	00c80733          	add	a4,a6,a2
   29c4c:	00070593          	mv	a1,a4
   29c50:	0105b5b3          	sltu	a1,a1,a6
   29c54:	00d887b3          	add	a5,a7,a3
   29c58:	00f586b3          	add	a3,a1,a5
   29c5c:	00068793          	mv	a5,a3
   29c60:	00070613          	mv	a2,a4
   29c64:	00078693          	mv	a3,a5
   29c68:	00100513          	li	a0,1
   29c6c:	00000593          	li	a1,0
   29c70:	00a60733          	add	a4,a2,a0
   29c74:	00070813          	mv	a6,a4
   29c78:	00c83833          	sltu	a6,a6,a2
   29c7c:	00b687b3          	add	a5,a3,a1
   29c80:	00f806b3          	add	a3,a6,a5
   29c84:	00068793          	mv	a5,a3
   29c88:	fcc42683          	lw	a3,-52(s0)
   29c8c:	00e6a423          	sw	a4,8(a3)
   29c90:	00f6a623          	sw	a5,12(a3)
   29c94:	fcc42783          	lw	a5,-52(s0)
   29c98:	0002c737          	lui	a4,0x2c
   29c9c:	1d870713          	add	a4,a4,472 # 2c1d8 <alt_alarm_list>
   29ca0:	fce42e23          	sw	a4,-36(s0)
   29ca4:	fef42023          	sw	a5,-32(s0)
   29ca8:	fe042783          	lw	a5,-32(s0)
   29cac:	fdc42703          	lw	a4,-36(s0)
   29cb0:	00e7a223          	sw	a4,4(a5)
   29cb4:	fdc42783          	lw	a5,-36(s0)
   29cb8:	0007a703          	lw	a4,0(a5)
   29cbc:	fe042783          	lw	a5,-32(s0)
   29cc0:	00e7a023          	sw	a4,0(a5)
   29cc4:	fdc42783          	lw	a5,-36(s0)
   29cc8:	0007a783          	lw	a5,0(a5)
   29ccc:	fe042703          	lw	a4,-32(s0)
   29cd0:	00e7a223          	sw	a4,4(a5)
   29cd4:	fdc42783          	lw	a5,-36(s0)
   29cd8:	fe042703          	lw	a4,-32(s0)
   29cdc:	00e7a023          	sw	a4,0(a5)
   29ce0:	00000013          	nop
   29ce4:	fd442783          	lw	a5,-44(s0)
   29ce8:	fcf42c23          	sw	a5,-40(s0)
   29cec:	fd842783          	lw	a5,-40(s0)
   29cf0:	0087f793          	and	a5,a5,8
   29cf4:	3007a073          	csrs	mstatus,a5
   29cf8:	00000013          	nop
   29cfc:	00000793          	li	a5,0
   29d00:	0100006f          	j	29d10 <alt_alarm_start+0x15c>
   29d04:	fea00793          	li	a5,-22
   29d08:	0080006f          	j	29d10 <alt_alarm_start+0x15c>
   29d0c:	f7a00793          	li	a5,-134
   29d10:	00078513          	mv	a0,a5
   29d14:	03c12403          	lw	s0,60(sp)
   29d18:	04010113          	add	sp,sp,64
   29d1c:	00008067          	ret

00029d20 <alt_dcache_flush_all>:
   29d20:	ff010113          	add	sp,sp,-16
   29d24:	00812623          	sw	s0,12(sp)
   29d28:	01010413          	add	s0,sp,16
   29d2c:	00000013          	nop
   29d30:	00c12403          	lw	s0,12(sp)
   29d34:	01010113          	add	sp,sp,16
   29d38:	00008067          	ret

00029d3c <alt_icache_flush_all>:
   29d3c:	ff010113          	add	sp,sp,-16
   29d40:	00812623          	sw	s0,12(sp)
   29d44:	01010413          	add	s0,sp,16
   29d48:	00000013          	nop
   29d4c:	00c12403          	lw	s0,12(sp)
   29d50:	01010113          	add	sp,sp,16
   29d54:	00008067          	ret

00029d58 <alt_ic_isr_register>:
   29d58:	fd010113          	add	sp,sp,-48
   29d5c:	02112623          	sw	ra,44(sp)
   29d60:	02812423          	sw	s0,40(sp)
   29d64:	03010413          	add	s0,sp,48
   29d68:	fea42623          	sw	a0,-20(s0)
   29d6c:	feb42423          	sw	a1,-24(s0)
   29d70:	fec42223          	sw	a2,-28(s0)
   29d74:	fed42023          	sw	a3,-32(s0)
   29d78:	fce42e23          	sw	a4,-36(s0)
   29d7c:	fdc42703          	lw	a4,-36(s0)
   29d80:	fe042683          	lw	a3,-32(s0)
   29d84:	fe442603          	lw	a2,-28(s0)
   29d88:	fe842583          	lw	a1,-24(s0)
   29d8c:	fec42503          	lw	a0,-20(s0)
   29d90:	01c000ef          	jal	29dac <alt_iic_isr_register>
   29d94:	00050793          	mv	a5,a0
   29d98:	00078513          	mv	a0,a5
   29d9c:	02c12083          	lw	ra,44(sp)
   29da0:	02812403          	lw	s0,40(sp)
   29da4:	03010113          	add	sp,sp,48
   29da8:	00008067          	ret

00029dac <alt_iic_isr_register>:
   29dac:	fa010113          	add	sp,sp,-96
   29db0:	04812e23          	sw	s0,92(sp)
   29db4:	06010413          	add	s0,sp,96
   29db8:	faa42e23          	sw	a0,-68(s0)
   29dbc:	fab42c23          	sw	a1,-72(s0)
   29dc0:	fac42a23          	sw	a2,-76(s0)
   29dc4:	fad42823          	sw	a3,-80(s0)
   29dc8:	fae42623          	sw	a4,-84(s0)
   29dcc:	fea00793          	li	a5,-22
   29dd0:	fcf42223          	sw	a5,-60(s0)
   29dd4:	fb842783          	lw	a5,-72(s0)
   29dd8:	fcf42423          	sw	a5,-56(s0)
   29ddc:	fc842703          	lw	a4,-56(s0)
   29de0:	00f00793          	li	a5,15
   29de4:	12e7c863          	blt	a5,a4,29f14 <alt_iic_isr_register+0x168>
   29de8:	00800793          	li	a5,8
   29dec:	3007b7f3          	csrrc	a5,mstatus,a5
   29df0:	fcf42823          	sw	a5,-48(s0)
   29df4:	fd042783          	lw	a5,-48(s0)
   29df8:	fcf42623          	sw	a5,-52(s0)
   29dfc:	0002d7b7          	lui	a5,0x2d
   29e00:	3a078713          	add	a4,a5,928 # 2d3a0 <alt_irq>
   29e04:	fc842783          	lw	a5,-56(s0)
   29e08:	00379793          	sll	a5,a5,0x3
   29e0c:	00f707b3          	add	a5,a4,a5
   29e10:	fb442703          	lw	a4,-76(s0)
   29e14:	00e7a023          	sw	a4,0(a5)
   29e18:	0002d7b7          	lui	a5,0x2d
   29e1c:	3a078713          	add	a4,a5,928 # 2d3a0 <alt_irq>
   29e20:	fc842783          	lw	a5,-56(s0)
   29e24:	00379793          	sll	a5,a5,0x3
   29e28:	00f707b3          	add	a5,a4,a5
   29e2c:	fb042703          	lw	a4,-80(s0)
   29e30:	00e7a223          	sw	a4,4(a5)
   29e34:	fb442783          	lw	a5,-76(s0)
   29e38:	06078263          	beqz	a5,29e9c <alt_iic_isr_register+0xf0>
   29e3c:	fc842783          	lw	a5,-56(s0)
   29e40:	fbc42703          	lw	a4,-68(s0)
   29e44:	fce42a23          	sw	a4,-44(s0)
   29e48:	fcf42c23          	sw	a5,-40(s0)
   29e4c:	fd842703          	lw	a4,-40(s0)
   29e50:	00f00793          	li	a5,15
   29e54:	00e7e863          	bltu	a5,a4,29e64 <alt_iic_isr_register+0xb8>
   29e58:	fd842783          	lw	a5,-40(s0)
   29e5c:	01078793          	add	a5,a5,16
   29e60:	0080006f          	j	29e68 <alt_iic_isr_register+0xbc>
   29e64:	fff00793          	li	a5,-1
   29e68:	fcf42e23          	sw	a5,-36(s0)
   29e6c:	fdc42783          	lw	a5,-36(s0)
   29e70:	0007d663          	bgez	a5,29e7c <alt_iic_isr_register+0xd0>
   29e74:	fdc42783          	lw	a5,-36(s0)
   29e78:	0800006f          	j	29ef8 <alt_iic_isr_register+0x14c>
   29e7c:	fdc42783          	lw	a5,-36(s0)
   29e80:	fcf42c23          	sw	a5,-40(s0)
   29e84:	fd842783          	lw	a5,-40(s0)
   29e88:	00100713          	li	a4,1
   29e8c:	00f717b3          	sll	a5,a4,a5
   29e90:	3047a073          	csrs	mie,a5
   29e94:	00000793          	li	a5,0
   29e98:	0600006f          	j	29ef8 <alt_iic_isr_register+0x14c>
   29e9c:	fc842783          	lw	a5,-56(s0)
   29ea0:	fbc42703          	lw	a4,-68(s0)
   29ea4:	fee42023          	sw	a4,-32(s0)
   29ea8:	fef42223          	sw	a5,-28(s0)
   29eac:	fe442703          	lw	a4,-28(s0)
   29eb0:	00f00793          	li	a5,15
   29eb4:	00e7e863          	bltu	a5,a4,29ec4 <alt_iic_isr_register+0x118>
   29eb8:	fe442783          	lw	a5,-28(s0)
   29ebc:	01078793          	add	a5,a5,16
   29ec0:	0080006f          	j	29ec8 <alt_iic_isr_register+0x11c>
   29ec4:	fff00793          	li	a5,-1
   29ec8:	fef42423          	sw	a5,-24(s0)
   29ecc:	fe842783          	lw	a5,-24(s0)
   29ed0:	0007d663          	bgez	a5,29edc <alt_iic_isr_register+0x130>
   29ed4:	fe842783          	lw	a5,-24(s0)
   29ed8:	0200006f          	j	29ef8 <alt_iic_isr_register+0x14c>
   29edc:	fe842783          	lw	a5,-24(s0)
   29ee0:	fef42223          	sw	a5,-28(s0)
   29ee4:	fe442783          	lw	a5,-28(s0)
   29ee8:	00100713          	li	a4,1
   29eec:	00f717b3          	sll	a5,a4,a5
   29ef0:	3047b073          	csrc	mie,a5
   29ef4:	00000793          	li	a5,0
   29ef8:	fcf42223          	sw	a5,-60(s0)
   29efc:	fcc42783          	lw	a5,-52(s0)
   29f00:	fef42623          	sw	a5,-20(s0)
   29f04:	fec42783          	lw	a5,-20(s0)
   29f08:	0087f793          	and	a5,a5,8
   29f0c:	3007a073          	csrs	mstatus,a5
   29f10:	00000013          	nop
   29f14:	fc442783          	lw	a5,-60(s0)
   29f18:	00078513          	mv	a0,a5
   29f1c:	05c12403          	lw	s0,92(sp)
   29f20:	06010113          	add	sp,sp,96
   29f24:	00008067          	ret

00029f28 <intel_niosv_irq_init>:
   29f28:	ff010113          	add	sp,sp,-16
   29f2c:	00812623          	sw	s0,12(sp)
   29f30:	01010413          	add	s0,sp,16
   29f34:	fff00793          	li	a5,-1
   29f38:	3047b073          	csrc	mie,a5
   29f3c:	00000013          	nop
   29f40:	00c12403          	lw	s0,12(sp)
   29f44:	01010113          	add	sp,sp,16
   29f48:	00008067          	ret

00029f4c <alt_timestamp_start>:
   29f4c:	ff010113          	add	sp,sp,-16
   29f50:	00112623          	sw	ra,12(sp)
   29f54:	00812423          	sw	s0,8(sp)
   29f58:	01010413          	add	s0,sp,16
   29f5c:	0ac000ef          	jal	2a008 <alt_niosv_mtime_get>
   29f60:	00050713          	mv	a4,a0
   29f64:	00058793          	mv	a5,a1
   29f68:	0002d6b7          	lui	a3,0x2d
   29f6c:	38e6a823          	sw	a4,912(a3) # 2d390 <alt_niosv_timestamp_offset>
   29f70:	38f6aa23          	sw	a5,916(a3)
   29f74:	00000793          	li	a5,0
   29f78:	00078513          	mv	a0,a5
   29f7c:	00c12083          	lw	ra,12(sp)
   29f80:	00812403          	lw	s0,8(sp)
   29f84:	01010113          	add	sp,sp,16
   29f88:	00008067          	ret

00029f8c <alt_timestamp>:
   29f8c:	ff010113          	add	sp,sp,-16
   29f90:	00112623          	sw	ra,12(sp)
   29f94:	00812423          	sw	s0,8(sp)
   29f98:	01010413          	add	s0,sp,16
   29f9c:	06c000ef          	jal	2a008 <alt_niosv_mtime_get>
   29fa0:	00050613          	mv	a2,a0
   29fa4:	00058693          	mv	a3,a1
   29fa8:	0002d7b7          	lui	a5,0x2d
   29fac:	3907a503          	lw	a0,912(a5) # 2d390 <alt_niosv_timestamp_offset>
   29fb0:	3947a583          	lw	a1,916(a5)
   29fb4:	40a60733          	sub	a4,a2,a0
   29fb8:	00070813          	mv	a6,a4
   29fbc:	01063833          	sltu	a6,a2,a6
   29fc0:	40b687b3          	sub	a5,a3,a1
   29fc4:	410786b3          	sub	a3,a5,a6
   29fc8:	00068793          	mv	a5,a3
   29fcc:	00070513          	mv	a0,a4
   29fd0:	00078593          	mv	a1,a5
   29fd4:	00c12083          	lw	ra,12(sp)
   29fd8:	00812403          	lw	s0,8(sp)
   29fdc:	01010113          	add	sp,sp,16
   29fe0:	00008067          	ret

00029fe4 <alt_timestamp_freq>:
   29fe4:	ff010113          	add	sp,sp,-16
   29fe8:	00812623          	sw	s0,12(sp)
   29fec:	01010413          	add	s0,sp,16
   29ff0:	05f5e7b7          	lui	a5,0x5f5e
   29ff4:	10078793          	add	a5,a5,256 # 5f5e100 <__alt_data_end+0x5f2fd00>
   29ff8:	00078513          	mv	a0,a5
   29ffc:	00c12403          	lw	s0,12(sp)
   2a000:	01010113          	add	sp,sp,16
   2a004:	00008067          	ret

0002a008 <alt_niosv_mtime_get>:
   2a008:	fe010113          	add	sp,sp,-32
   2a00c:	00812e23          	sw	s0,28(sp)
   2a010:	02010413          	add	s0,sp,32
   2a014:	00030337          	lui	t1,0x30
   2a018:	00430313          	add	t1,t1,4 # 30004 <__alt_data_end+0x1c04>
   2a01c:	00032303          	lw	t1,0(t1)
   2a020:	fe642423          	sw	t1,-24(s0)
   2a024:	00030337          	lui	t1,0x30
   2a028:	00032303          	lw	t1,0(t1) # 30000 <__alt_data_end+0x1c00>
   2a02c:	fe642623          	sw	t1,-20(s0)
   2a030:	00030337          	lui	t1,0x30
   2a034:	00430313          	add	t1,t1,4 # 30004 <__alt_data_end+0x1c04>
   2a038:	00032303          	lw	t1,0(t1)
   2a03c:	fe842e03          	lw	t3,-24(s0)
   2a040:	fc6e1ae3          	bne	t3,t1,2a014 <alt_niosv_mtime_get+0xc>
   2a044:	fe842303          	lw	t1,-24(s0)
   2a048:	00030813          	mv	a6,t1
   2a04c:	00000893          	li	a7,0
   2a050:	00081793          	sll	a5,a6,0x0
   2a054:	00000713          	li	a4,0
   2a058:	fec42803          	lw	a6,-20(s0)
   2a05c:	00080613          	mv	a2,a6
   2a060:	00000693          	li	a3,0
   2a064:	00c76533          	or	a0,a4,a2
   2a068:	00d7e5b3          	or	a1,a5,a3
   2a06c:	00050713          	mv	a4,a0
   2a070:	00058793          	mv	a5,a1
   2a074:	00070513          	mv	a0,a4
   2a078:	00078593          	mv	a1,a5
   2a07c:	01c12403          	lw	s0,28(sp)
   2a080:	02010113          	add	sp,sp,32
   2a084:	00008067          	ret

0002a088 <alt_niosv_mtimecmp_set>:
   2a088:	fd010113          	add	sp,sp,-48
   2a08c:	02812623          	sw	s0,44(sp)
   2a090:	03010413          	add	s0,sp,48
   2a094:	fca42c23          	sw	a0,-40(s0)
   2a098:	fcb42e23          	sw	a1,-36(s0)
   2a09c:	f14026f3          	csrr	a3,mhartid
   2a0a0:	fed42623          	sw	a3,-20(s0)
   2a0a4:	fec42603          	lw	a2,-20(s0)
   2a0a8:	000066b7          	lui	a3,0x6
   2a0ac:	00168693          	add	a3,a3,1 # 6001 <__reset-0x21fff>
   2a0b0:	00d606b3          	add	a3,a2,a3
   2a0b4:	00369693          	sll	a3,a3,0x3
   2a0b8:	fed42423          	sw	a3,-24(s0)
   2a0bc:	fe842683          	lw	a3,-24(s0)
   2a0c0:	00468693          	add	a3,a3,4
   2a0c4:	fff00613          	li	a2,-1
   2a0c8:	00c6a023          	sw	a2,0(a3)
   2a0cc:	fd842603          	lw	a2,-40(s0)
   2a0d0:	fe842683          	lw	a3,-24(s0)
   2a0d4:	00c6a023          	sw	a2,0(a3)
   2a0d8:	fdc42683          	lw	a3,-36(s0)
   2a0dc:	0006d713          	srl	a4,a3,0x0
   2a0e0:	00000793          	li	a5,0
   2a0e4:	fe842683          	lw	a3,-24(s0)
   2a0e8:	00468693          	add	a3,a3,4
   2a0ec:	00070793          	mv	a5,a4
   2a0f0:	00f6a023          	sw	a5,0(a3)
   2a0f4:	00000013          	nop
   2a0f8:	02c12403          	lw	s0,44(sp)
   2a0fc:	03010113          	add	sp,sp,48
   2a100:	00008067          	ret

0002a104 <alt_niosv_mtimecmp_get>:
   2a104:	fe010113          	add	sp,sp,-32
   2a108:	00812e23          	sw	s0,28(sp)
   2a10c:	02010413          	add	s0,sp,32
   2a110:	f1402373          	csrr	t1,mhartid
   2a114:	fe642623          	sw	t1,-20(s0)
   2a118:	fec42e03          	lw	t3,-20(s0)
   2a11c:	00006337          	lui	t1,0x6
   2a120:	00130313          	add	t1,t1,1 # 6001 <__reset-0x21fff>
   2a124:	006e0333          	add	t1,t3,t1
   2a128:	00331313          	sll	t1,t1,0x3
   2a12c:	fe642023          	sw	t1,-32(s0)
   2a130:	fe042303          	lw	t1,-32(s0)
   2a134:	00032303          	lw	t1,0(t1)
   2a138:	fe642223          	sw	t1,-28(s0)
   2a13c:	fe042303          	lw	t1,-32(s0)
   2a140:	00430313          	add	t1,t1,4
   2a144:	00032303          	lw	t1,0(t1)
   2a148:	fe642423          	sw	t1,-24(s0)
   2a14c:	fe842303          	lw	t1,-24(s0)
   2a150:	00030813          	mv	a6,t1
   2a154:	00000893          	li	a7,0
   2a158:	00081793          	sll	a5,a6,0x0
   2a15c:	00000713          	li	a4,0
   2a160:	fe442803          	lw	a6,-28(s0)
   2a164:	00080613          	mv	a2,a6
   2a168:	00000693          	li	a3,0
   2a16c:	00c76533          	or	a0,a4,a2
   2a170:	00d7e5b3          	or	a1,a5,a3
   2a174:	00050713          	mv	a4,a0
   2a178:	00058793          	mv	a5,a1
   2a17c:	00070513          	mv	a0,a4
   2a180:	00078593          	mv	a1,a5
   2a184:	01c12403          	lw	s0,28(sp)
   2a188:	02010113          	add	sp,sp,32
   2a18c:	00008067          	ret

0002a190 <alt_niosv_timer_sc_isr>:
   2a190:	fc010113          	add	sp,sp,-64
   2a194:	02112e23          	sw	ra,60(sp)
   2a198:	02812c23          	sw	s0,56(sp)
   2a19c:	04010413          	add	s0,sp,64
   2a1a0:	fca42623          	sw	a0,-52(s0)
   2a1a4:	fcb42423          	sw	a1,-56(s0)
   2a1a8:	fcc42223          	sw	a2,-60(s0)
   2a1ac:	e5dff0ef          	jal	2a008 <alt_niosv_mtime_get>
   2a1b0:	fea42423          	sw	a0,-24(s0)
   2a1b4:	feb42623          	sw	a1,-20(s0)
   2a1b8:	fe842703          	lw	a4,-24(s0)
   2a1bc:	fec42783          	lw	a5,-20(s0)
   2a1c0:	00018537          	lui	a0,0x18
   2a1c4:	6a050513          	add	a0,a0,1696 # 186a0 <__reset-0xf960>
   2a1c8:	00000593          	li	a1,0
   2a1cc:	00a70633          	add	a2,a4,a0
   2a1d0:	00060813          	mv	a6,a2
   2a1d4:	00e83833          	sltu	a6,a6,a4
   2a1d8:	00b786b3          	add	a3,a5,a1
   2a1dc:	00d807b3          	add	a5,a6,a3
   2a1e0:	00078693          	mv	a3,a5
   2a1e4:	00060713          	mv	a4,a2
   2a1e8:	00068793          	mv	a5,a3
   2a1ec:	00070513          	mv	a0,a4
   2a1f0:	00078593          	mv	a1,a5
   2a1f4:	e95ff0ef          	jal	2a088 <alt_niosv_mtimecmp_set>
   2a1f8:	dadfe0ef          	jal	28fa4 <alt_log_system_clock>
   2a1fc:	00800793          	li	a5,8
   2a200:	3007b7f3          	csrrc	a5,mstatus,a5
   2a204:	fef42223          	sw	a5,-28(s0)
   2a208:	fe442783          	lw	a5,-28(s0)
   2a20c:	fcf42e23          	sw	a5,-36(s0)
   2a210:	824ff0ef          	jal	29234 <alt_tick>
   2a214:	fdc42783          	lw	a5,-36(s0)
   2a218:	fef42023          	sw	a5,-32(s0)
   2a21c:	fe042783          	lw	a5,-32(s0)
   2a220:	0087f793          	and	a5,a5,8
   2a224:	3007a073          	csrs	mstatus,a5
   2a228:	00000013          	nop
   2a22c:	00000013          	nop
   2a230:	03c12083          	lw	ra,60(sp)
   2a234:	03812403          	lw	s0,56(sp)
   2a238:	04010113          	add	sp,sp,64
   2a23c:	00008067          	ret

0002a240 <alt_niosv_mtimecmp_interrupt_init>:
   2a240:	fe010113          	add	sp,sp,-32
   2a244:	00112e23          	sw	ra,28(sp)
   2a248:	00812c23          	sw	s0,24(sp)
   2a24c:	02010413          	add	s0,sp,32
   2a250:	db9ff0ef          	jal	2a008 <alt_niosv_mtime_get>
   2a254:	fea42423          	sw	a0,-24(s0)
   2a258:	feb42623          	sw	a1,-20(s0)
   2a25c:	fe842703          	lw	a4,-24(s0)
   2a260:	fec42783          	lw	a5,-20(s0)
   2a264:	00018537          	lui	a0,0x18
   2a268:	6a050513          	add	a0,a0,1696 # 186a0 <__reset-0xf960>
   2a26c:	00000593          	li	a1,0
   2a270:	00a70633          	add	a2,a4,a0
   2a274:	00060813          	mv	a6,a2
   2a278:	00e83833          	sltu	a6,a6,a4
   2a27c:	00b786b3          	add	a3,a5,a1
   2a280:	00d807b3          	add	a5,a6,a3
   2a284:	00078693          	mv	a3,a5
   2a288:	00060713          	mv	a4,a2
   2a28c:	00068793          	mv	a5,a3
   2a290:	00070513          	mv	a0,a4
   2a294:	00078593          	mv	a1,a5
   2a298:	df1ff0ef          	jal	2a088 <alt_niosv_mtimecmp_set>
   2a29c:	08000793          	li	a5,128
   2a2a0:	3047a073          	csrs	mie,a5
   2a2a4:	00000013          	nop
   2a2a8:	00000013          	nop
   2a2ac:	01c12083          	lw	ra,28(sp)
   2a2b0:	01812403          	lw	s0,24(sp)
   2a2b4:	02010113          	add	sp,sp,32
   2a2b8:	00008067          	ret

0002a2bc <__stack_chk_init>:
   2a2bc:	00003517          	auipc	a0,0x3
   2a2c0:	0dc50513          	add	a0,a0,220 # 2d398 <__stack_chk_guard>
   2a2c4:	00052783          	lw	a5,0(a0)
   2a2c8:	02079263          	bnez	a5,2a2ec <__stack_chk_init+0x30>
   2a2cc:	00000793          	li	a5,0
   2a2d0:	00078863          	beqz	a5,2a2e0 <__stack_chk_init+0x24>
   2a2d4:	00400593          	li	a1,4
   2a2d8:	00000317          	auipc	t1,0x0
   2a2dc:	00000067          	jr	zero # 0 <__reset-0x28000>
   2a2e0:	ff0a07b7          	lui	a5,0xff0a0
   2a2e4:	00f52023          	sw	a5,0(a0)
   2a2e8:	00008067          	ret
   2a2ec:	00008067          	ret

0002a2f0 <__stack_chk_fail_weak>:
   2a2f0:	184002ef          	jal	t0,2a474 <__riscv_save_0>
   2a2f4:	00001517          	auipc	a0,0x1
   2a2f8:	d5850513          	add	a0,a0,-680 # 2b04c <__flash_rodata_start+0x2b0>
   2a2fc:	014000ef          	jal	2a310 <puts>
   2a300:	00600513          	li	a0,6
   2a304:	0b4000ef          	jal	2a3b8 <raise>
   2a308:	07f00513          	li	a0,127
   2a30c:	cf9fd0ef          	jal	28004 <_exit>

0002a310 <puts>:
   2a310:	164002ef          	jal	t0,2a474 <__riscv_save_0>
   2a314:	00001597          	auipc	a1,0x1
   2a318:	d705a583          	lw	a1,-656(a1) # 2b084 <stdout>
   2a31c:	0045c783          	lbu	a5,4(a1)
   2a320:	ff010113          	add	sp,sp,-16
   2a324:	00050413          	mv	s0,a0
   2a328:	0027f793          	and	a5,a5,2
   2a32c:	00000493          	li	s1,0
   2a330:	02079463          	bnez	a5,2a358 <puts+0x48>
   2a334:	fff00493          	li	s1,-1
   2a338:	00048513          	mv	a0,s1
   2a33c:	01010113          	add	sp,sp,16
   2a340:	17c0006f          	j	2a4bc <__riscv_restore_0>
   2a344:	00b12623          	sw	a1,12(sp)
   2a348:	000780e7          	jalr	a5 # ff0a0000 <__alt_data_end+0xff071c00>
   2a34c:	00c12583          	lw	a1,12(sp)
   2a350:	00055463          	bgez	a0,2a358 <puts+0x48>
   2a354:	fff00493          	li	s1,-1
   2a358:	00044503          	lbu	a0,0(s0)
   2a35c:	00140413          	add	s0,s0,1
   2a360:	0085a783          	lw	a5,8(a1)
   2a364:	fe0510e3          	bnez	a0,2a344 <puts+0x34>
   2a368:	00a00513          	li	a0,10
   2a36c:	000780e7          	jalr	a5
   2a370:	fc0554e3          	bgez	a0,2a338 <puts+0x28>
   2a374:	fc1ff06f          	j	2a334 <puts+0x24>

0002a378 <memcpy>:
   2a378:	00050313          	mv	t1,a0
   2a37c:	00060e63          	beqz	a2,2a398 <memcpy+0x20>
   2a380:	00058383          	lb	t2,0(a1)
   2a384:	00730023          	sb	t2,0(t1) # 2a2d8 <__stack_chk_init+0x1c>
   2a388:	fff60613          	add	a2,a2,-1
   2a38c:	00130313          	add	t1,t1,1
   2a390:	00158593          	add	a1,a1,1
   2a394:	fe0616e3          	bnez	a2,2a380 <memcpy+0x8>
   2a398:	00008067          	ret

0002a39c <strlen>:
   2a39c:	00050793          	mv	a5,a0
   2a3a0:	0007c703          	lbu	a4,0(a5)
   2a3a4:	00178793          	add	a5,a5,1
   2a3a8:	fe071ce3          	bnez	a4,2a3a0 <strlen+0x4>
   2a3ac:	40a78533          	sub	a0,a5,a0
   2a3b0:	fff50513          	add	a0,a0,-1
   2a3b4:	00008067          	ret

0002a3b8 <raise>:
   2a3b8:	01f00713          	li	a4,31
   2a3bc:	00a77c63          	bgeu	a4,a0,2a3d4 <raise+0x1c>
   2a3c0:	01600793          	li	a5,22
   2a3c4:	00003717          	auipc	a4,0x3
   2a3c8:	fcf72c23          	sw	a5,-40(a4) # 2d39c <errno>
   2a3cc:	fff00513          	li	a0,-1
   2a3d0:	00008067          	ret
   2a3d4:	00251693          	sll	a3,a0,0x2
   2a3d8:	00003717          	auipc	a4,0x3
   2a3dc:	07870713          	add	a4,a4,120 # 2d450 <_sig_func>
   2a3e0:	00d70733          	add	a4,a4,a3
   2a3e4:	00072683          	lw	a3,0(a4)
   2a3e8:	00100613          	li	a2,1
   2a3ec:	02c68263          	beq	a3,a2,2a410 <raise+0x58>
   2a3f0:	084002ef          	jal	t0,2a474 <__riscv_save_0>
   2a3f4:	00069663          	bnez	a3,2a400 <raise+0x48>
   2a3f8:	08050513          	add	a0,a0,128
   2a3fc:	c09fd0ef          	jal	28004 <_exit>
   2a400:	00072023          	sw	zero,0(a4)
   2a404:	000680e7          	jalr	a3
   2a408:	00000513          	li	a0,0
   2a40c:	0b00006f          	j	2a4bc <__riscv_restore_0>
   2a410:	00000513          	li	a0,0
   2a414:	00008067          	ret

0002a418 <__riscv_save_12>:
   2a418:	fc010113          	add	sp,sp,-64
   2a41c:	00000313          	li	t1,0
   2a420:	01b12623          	sw	s11,12(sp)
   2a424:	00c0006f          	j	2a430 <__riscv_save_10+0x8>

0002a428 <__riscv_save_10>:
   2a428:	fc010113          	add	sp,sp,-64
   2a42c:	ff000313          	li	t1,-16
   2a430:	01a12823          	sw	s10,16(sp)
   2a434:	01912a23          	sw	s9,20(sp)
   2a438:	01812c23          	sw	s8,24(sp)
   2a43c:	01712e23          	sw	s7,28(sp)
   2a440:	00c0006f          	j	2a44c <__riscv_save_4+0x8>

0002a444 <__riscv_save_4>:
   2a444:	fc010113          	add	sp,sp,-64
   2a448:	fe000313          	li	t1,-32
   2a44c:	03612023          	sw	s6,32(sp)
   2a450:	03512223          	sw	s5,36(sp)
   2a454:	03412423          	sw	s4,40(sp)
   2a458:	03312623          	sw	s3,44(sp)
   2a45c:	03212823          	sw	s2,48(sp)
   2a460:	02912a23          	sw	s1,52(sp)
   2a464:	02812c23          	sw	s0,56(sp)
   2a468:	02112e23          	sw	ra,60(sp)
   2a46c:	40610133          	sub	sp,sp,t1
   2a470:	00028067          	jr	t0

0002a474 <__riscv_save_0>:
   2a474:	ff010113          	add	sp,sp,-16
   2a478:	01212023          	sw	s2,0(sp)
   2a47c:	00912223          	sw	s1,4(sp)
   2a480:	00812423          	sw	s0,8(sp)
   2a484:	00112623          	sw	ra,12(sp)
   2a488:	00028067          	jr	t0

0002a48c <__riscv_restore_12>:
   2a48c:	00c12d83          	lw	s11,12(sp)
   2a490:	01010113          	add	sp,sp,16

0002a494 <__riscv_restore_10>:
   2a494:	00012d03          	lw	s10,0(sp)
   2a498:	00412c83          	lw	s9,4(sp)
   2a49c:	00812c03          	lw	s8,8(sp)
   2a4a0:	00c12b83          	lw	s7,12(sp)
   2a4a4:	01010113          	add	sp,sp,16

0002a4a8 <__riscv_restore_4>:
   2a4a8:	00012b03          	lw	s6,0(sp)
   2a4ac:	00412a83          	lw	s5,4(sp)
   2a4b0:	00812a03          	lw	s4,8(sp)
   2a4b4:	00c12983          	lw	s3,12(sp)
   2a4b8:	01010113          	add	sp,sp,16

0002a4bc <__riscv_restore_0>:
   2a4bc:	00012903          	lw	s2,0(sp)
   2a4c0:	00412483          	lw	s1,4(sp)
   2a4c4:	00812403          	lw	s0,8(sp)
   2a4c8:	00c12083          	lw	ra,12(sp)
   2a4cc:	01010113          	add	sp,sp,16
   2a4d0:	00008067          	ret

0002a4d4 <__mulsi3>:
   2a4d4:	00050613          	mv	a2,a0
   2a4d8:	00000513          	li	a0,0
   2a4dc:	0015f693          	and	a3,a1,1
   2a4e0:	00068463          	beqz	a3,2a4e8 <__mulsi3+0x14>
   2a4e4:	00c50533          	add	a0,a0,a2
   2a4e8:	0015d593          	srl	a1,a1,0x1
   2a4ec:	00161613          	sll	a2,a2,0x1
   2a4f0:	fe0596e3          	bnez	a1,2a4dc <__mulsi3+0x8>
   2a4f4:	00008067          	ret

0002a4f8 <__divsi3>:
   2a4f8:	06054063          	bltz	a0,2a558 <__umodsi3+0x10>
   2a4fc:	0605c663          	bltz	a1,2a568 <__umodsi3+0x20>

0002a500 <__hidden___udivsi3>:
   2a500:	00058613          	mv	a2,a1
   2a504:	00050593          	mv	a1,a0
   2a508:	fff00513          	li	a0,-1
   2a50c:	02060c63          	beqz	a2,2a544 <__hidden___udivsi3+0x44>
   2a510:	00100693          	li	a3,1
   2a514:	00b67a63          	bgeu	a2,a1,2a528 <__hidden___udivsi3+0x28>
   2a518:	00c05863          	blez	a2,2a528 <__hidden___udivsi3+0x28>
   2a51c:	00161613          	sll	a2,a2,0x1
   2a520:	00169693          	sll	a3,a3,0x1
   2a524:	feb66ae3          	bltu	a2,a1,2a518 <__hidden___udivsi3+0x18>
   2a528:	00000513          	li	a0,0
   2a52c:	00c5e663          	bltu	a1,a2,2a538 <__hidden___udivsi3+0x38>
   2a530:	40c585b3          	sub	a1,a1,a2
   2a534:	00d56533          	or	a0,a0,a3
   2a538:	0016d693          	srl	a3,a3,0x1
   2a53c:	00165613          	srl	a2,a2,0x1
   2a540:	fe0696e3          	bnez	a3,2a52c <__hidden___udivsi3+0x2c>
   2a544:	00008067          	ret

0002a548 <__umodsi3>:
   2a548:	00008293          	mv	t0,ra
   2a54c:	fb5ff0ef          	jal	2a500 <__hidden___udivsi3>
   2a550:	00058513          	mv	a0,a1
   2a554:	00028067          	jr	t0
   2a558:	40a00533          	neg	a0,a0
   2a55c:	00b04863          	bgtz	a1,2a56c <__umodsi3+0x24>
   2a560:	40b005b3          	neg	a1,a1
   2a564:	f9dff06f          	j	2a500 <__hidden___udivsi3>
   2a568:	40b005b3          	neg	a1,a1
   2a56c:	00008293          	mv	t0,ra
   2a570:	f91ff0ef          	jal	2a500 <__hidden___udivsi3>
   2a574:	40a00533          	neg	a0,a0
   2a578:	00028067          	jr	t0

0002a57c <__modsi3>:
   2a57c:	00008293          	mv	t0,ra
   2a580:	0005ca63          	bltz	a1,2a594 <__modsi3+0x18>
   2a584:	00054c63          	bltz	a0,2a59c <__modsi3+0x20>
   2a588:	f79ff0ef          	jal	2a500 <__hidden___udivsi3>
   2a58c:	00058513          	mv	a0,a1
   2a590:	00028067          	jr	t0
   2a594:	40b005b3          	neg	a1,a1
   2a598:	fe0558e3          	bgez	a0,2a588 <__modsi3+0xc>
   2a59c:	40a00533          	neg	a0,a0
   2a5a0:	f61ff0ef          	jal	2a500 <__hidden___udivsi3>
   2a5a4:	40b00533          	neg	a0,a1
   2a5a8:	00028067          	jr	t0

0002a5ac <putc_wrapper>:
   2a5ac:	fe010113          	add	sp,sp,-32
   2a5b0:	00112e23          	sw	ra,28(sp)
   2a5b4:	00812c23          	sw	s0,24(sp)
   2a5b8:	02010413          	add	s0,sp,32
   2a5bc:	00050793          	mv	a5,a0
   2a5c0:	feb42423          	sw	a1,-24(s0)
   2a5c4:	fef407a3          	sb	a5,-17(s0)
   2a5c8:	fef40793          	add	a5,s0,-17
   2a5cc:	00100613          	li	a2,1
   2a5d0:	00078593          	mv	a1,a5
   2a5d4:	00100513          	li	a0,1
   2a5d8:	2f8000ef          	jal	2a8d0 <write>
   2a5dc:	00050793          	mv	a5,a0
   2a5e0:	00078513          	mv	a0,a5
   2a5e4:	01c12083          	lw	ra,28(sp)
   2a5e8:	01812403          	lw	s0,24(sp)
   2a5ec:	02010113          	add	sp,sp,32
   2a5f0:	00008067          	ret

0002a5f4 <getc_wrapper>:
   2a5f4:	fd010113          	add	sp,sp,-48
   2a5f8:	02112623          	sw	ra,44(sp)
   2a5fc:	02812423          	sw	s0,40(sp)
   2a600:	03010413          	add	s0,sp,48
   2a604:	fca42e23          	sw	a0,-36(s0)
   2a608:	0002d7b7          	lui	a5,0x2d
   2a60c:	3987a703          	lw	a4,920(a5) # 2d398 <__stack_chk_guard>
   2a610:	fee42623          	sw	a4,-20(s0)
   2a614:	00000713          	li	a4,0
   2a618:	feb40793          	add	a5,s0,-21
   2a61c:	00100613          	li	a2,1
   2a620:	00078593          	mv	a1,a5
   2a624:	00000513          	li	a0,0
   2a628:	1c8000ef          	jal	2a7f0 <read>
   2a62c:	feb44783          	lbu	a5,-21(s0)
   2a630:	00078713          	mv	a4,a5
   2a634:	0002d7b7          	lui	a5,0x2d
   2a638:	fec42683          	lw	a3,-20(s0)
   2a63c:	3987a783          	lw	a5,920(a5) # 2d398 <__stack_chk_guard>
   2a640:	00f6c7b3          	xor	a5,a3,a5
   2a644:	00000693          	li	a3,0
   2a648:	00078463          	beqz	a5,2a650 <getc_wrapper+0x5c>
   2a64c:	ca5ff0ef          	jal	2a2f0 <__stack_chk_fail_weak>
   2a650:	00070513          	mv	a0,a4
   2a654:	02c12083          	lw	ra,44(sp)
   2a658:	02812403          	lw	s0,40(sp)
   2a65c:	03010113          	add	sp,sp,48
   2a660:	00008067          	ret

0002a664 <alt_open_fd>:
   2a664:	fd010113          	add	sp,sp,-48
   2a668:	02112623          	sw	ra,44(sp)
   2a66c:	02812423          	sw	s0,40(sp)
   2a670:	03010413          	add	s0,sp,48
   2a674:	fca42e23          	sw	a0,-36(s0)
   2a678:	fcb42c23          	sw	a1,-40(s0)
   2a67c:	fcc42a23          	sw	a2,-44(s0)
   2a680:	fcd42823          	sw	a3,-48(s0)
   2a684:	fd042603          	lw	a2,-48(s0)
   2a688:	fd442583          	lw	a1,-44(s0)
   2a68c:	fd842503          	lw	a0,-40(s0)
   2a690:	128000ef          	jal	2a7b8 <open>
   2a694:	fea42623          	sw	a0,-20(s0)
   2a698:	fec42783          	lw	a5,-20(s0)
   2a69c:	0807c863          	bltz	a5,2a72c <alt_open_fd+0xc8>
   2a6a0:	0002c7b7          	lui	a5,0x2c
   2a6a4:	1a478693          	add	a3,a5,420 # 2c1a4 <alt_fd_list>
   2a6a8:	fec42703          	lw	a4,-20(s0)
   2a6ac:	00070793          	mv	a5,a4
   2a6b0:	00179793          	sll	a5,a5,0x1
   2a6b4:	00e787b3          	add	a5,a5,a4
   2a6b8:	00279793          	sll	a5,a5,0x2
   2a6bc:	00f687b3          	add	a5,a3,a5
   2a6c0:	0007a703          	lw	a4,0(a5)
   2a6c4:	fdc42783          	lw	a5,-36(s0)
   2a6c8:	00e7a023          	sw	a4,0(a5)
   2a6cc:	0002c7b7          	lui	a5,0x2c
   2a6d0:	1a478693          	add	a3,a5,420 # 2c1a4 <alt_fd_list>
   2a6d4:	fec42703          	lw	a4,-20(s0)
   2a6d8:	00070793          	mv	a5,a4
   2a6dc:	00179793          	sll	a5,a5,0x1
   2a6e0:	00e787b3          	add	a5,a5,a4
   2a6e4:	00279793          	sll	a5,a5,0x2
   2a6e8:	00f687b3          	add	a5,a3,a5
   2a6ec:	0047a703          	lw	a4,4(a5)
   2a6f0:	fdc42783          	lw	a5,-36(s0)
   2a6f4:	00e7a223          	sw	a4,4(a5)
   2a6f8:	0002c7b7          	lui	a5,0x2c
   2a6fc:	1a478693          	add	a3,a5,420 # 2c1a4 <alt_fd_list>
   2a700:	fec42703          	lw	a4,-20(s0)
   2a704:	00070793          	mv	a5,a4
   2a708:	00179793          	sll	a5,a5,0x1
   2a70c:	00e787b3          	add	a5,a5,a4
   2a710:	00279793          	sll	a5,a5,0x2
   2a714:	00f687b3          	add	a5,a3,a5
   2a718:	0087a703          	lw	a4,8(a5)
   2a71c:	fdc42783          	lw	a5,-36(s0)
   2a720:	00e7a423          	sw	a4,8(a5)
   2a724:	fec42503          	lw	a0,-20(s0)
   2a728:	134000ef          	jal	2a85c <alt_release_fd>
   2a72c:	00000013          	nop
   2a730:	02c12083          	lw	ra,44(sp)
   2a734:	02812403          	lw	s0,40(sp)
   2a738:	03010113          	add	sp,sp,48
   2a73c:	00008067          	ret

0002a740 <alt_io_redirect>:
   2a740:	fe010113          	add	sp,sp,-32
   2a744:	00112e23          	sw	ra,28(sp)
   2a748:	00812c23          	sw	s0,24(sp)
   2a74c:	02010413          	add	s0,sp,32
   2a750:	fea42623          	sw	a0,-20(s0)
   2a754:	feb42423          	sw	a1,-24(s0)
   2a758:	fec42223          	sw	a2,-28(s0)
   2a75c:	1ff00693          	li	a3,511
   2a760:	00100613          	li	a2,1
   2a764:	fec42583          	lw	a1,-20(s0)
   2a768:	0002c7b7          	lui	a5,0x2c
   2a76c:	1b078513          	add	a0,a5,432 # 2c1b0 <alt_fd_list+0xc>
   2a770:	ef5ff0ef          	jal	2a664 <alt_open_fd>
   2a774:	1ff00693          	li	a3,511
   2a778:	00000613          	li	a2,0
   2a77c:	fe842583          	lw	a1,-24(s0)
   2a780:	0002c7b7          	lui	a5,0x2c
   2a784:	1a478513          	add	a0,a5,420 # 2c1a4 <alt_fd_list>
   2a788:	eddff0ef          	jal	2a664 <alt_open_fd>
   2a78c:	1ff00693          	li	a3,511
   2a790:	00100613          	li	a2,1
   2a794:	fe442583          	lw	a1,-28(s0)
   2a798:	0002c7b7          	lui	a5,0x2c
   2a79c:	1bc78513          	add	a0,a5,444 # 2c1bc <alt_fd_list+0x18>
   2a7a0:	ec5ff0ef          	jal	2a664 <alt_open_fd>
   2a7a4:	00000013          	nop
   2a7a8:	01c12083          	lw	ra,28(sp)
   2a7ac:	01812403          	lw	s0,24(sp)
   2a7b0:	02010113          	add	sp,sp,32
   2a7b4:	00008067          	ret

0002a7b8 <open>:
   2a7b8:	fe010113          	add	sp,sp,-32
   2a7bc:	00812e23          	sw	s0,28(sp)
   2a7c0:	02010413          	add	s0,sp,32
   2a7c4:	fea42623          	sw	a0,-20(s0)
   2a7c8:	feb42423          	sw	a1,-24(s0)
   2a7cc:	fec42223          	sw	a2,-28(s0)
   2a7d0:	0002d7b7          	lui	a5,0x2d
   2a7d4:	05800713          	li	a4,88
   2a7d8:	38e7ae23          	sw	a4,924(a5) # 2d39c <errno>
   2a7dc:	fff00793          	li	a5,-1
   2a7e0:	00078513          	mv	a0,a5
   2a7e4:	01c12403          	lw	s0,28(sp)
   2a7e8:	02010113          	add	sp,sp,32
   2a7ec:	00008067          	ret

0002a7f0 <read>:
   2a7f0:	fe010113          	add	sp,sp,-32
   2a7f4:	00112e23          	sw	ra,28(sp)
   2a7f8:	00812c23          	sw	s0,24(sp)
   2a7fc:	02010413          	add	s0,sp,32
   2a800:	fea42623          	sw	a0,-20(s0)
   2a804:	feb42423          	sw	a1,-24(s0)
   2a808:	fec42223          	sw	a2,-28(s0)
   2a80c:	fec42783          	lw	a5,-20(s0)
   2a810:	02079463          	bnez	a5,2a838 <read+0x48>
   2a814:	fe442783          	lw	a5,-28(s0)
   2a818:	00000693          	li	a3,0
   2a81c:	00078613          	mv	a2,a5
   2a820:	fe842583          	lw	a1,-24(s0)
   2a824:	0002b7b7          	lui	a5,0x2b
   2a828:	13078513          	add	a0,a5,304 # 2b130 <DEBUG_JTAG>
   2a82c:	148000ef          	jal	2a974 <altera_avalon_jtag_uart_read>
   2a830:	00050793          	mv	a5,a0
   2a834:	0140006f          	j	2a848 <read+0x58>
   2a838:	0002d7b7          	lui	a5,0x2d
   2a83c:	05100713          	li	a4,81
   2a840:	38e7ae23          	sw	a4,924(a5) # 2d39c <errno>
   2a844:	fff00793          	li	a5,-1
   2a848:	00078513          	mv	a0,a5
   2a84c:	01c12083          	lw	ra,28(sp)
   2a850:	01812403          	lw	s0,24(sp)
   2a854:	02010113          	add	sp,sp,32
   2a858:	00008067          	ret

0002a85c <alt_release_fd>:
   2a85c:	fe010113          	add	sp,sp,-32
   2a860:	00812e23          	sw	s0,28(sp)
   2a864:	02010413          	add	s0,sp,32
   2a868:	fea42623          	sw	a0,-20(s0)
   2a86c:	fec42703          	lw	a4,-20(s0)
   2a870:	00200793          	li	a5,2
   2a874:	04e7d663          	bge	a5,a4,2a8c0 <alt_release_fd+0x64>
   2a878:	0002c7b7          	lui	a5,0x2c
   2a87c:	1a478693          	add	a3,a5,420 # 2c1a4 <alt_fd_list>
   2a880:	fec42703          	lw	a4,-20(s0)
   2a884:	00070793          	mv	a5,a4
   2a888:	00179793          	sll	a5,a5,0x1
   2a88c:	00e787b3          	add	a5,a5,a4
   2a890:	00279793          	sll	a5,a5,0x2
   2a894:	00f687b3          	add	a5,a3,a5
   2a898:	0007a423          	sw	zero,8(a5)
   2a89c:	0002c7b7          	lui	a5,0x2c
   2a8a0:	1a478693          	add	a3,a5,420 # 2c1a4 <alt_fd_list>
   2a8a4:	fec42703          	lw	a4,-20(s0)
   2a8a8:	00070793          	mv	a5,a4
   2a8ac:	00179793          	sll	a5,a5,0x1
   2a8b0:	00e787b3          	add	a5,a5,a4
   2a8b4:	00279793          	sll	a5,a5,0x2
   2a8b8:	00f687b3          	add	a5,a3,a5
   2a8bc:	0007a023          	sw	zero,0(a5)
   2a8c0:	00000013          	nop
   2a8c4:	01c12403          	lw	s0,28(sp)
   2a8c8:	02010113          	add	sp,sp,32
   2a8cc:	00008067          	ret

0002a8d0 <write>:
   2a8d0:	fe010113          	add	sp,sp,-32
   2a8d4:	00112e23          	sw	ra,28(sp)
   2a8d8:	00812c23          	sw	s0,24(sp)
   2a8dc:	02010413          	add	s0,sp,32
   2a8e0:	fea42623          	sw	a0,-20(s0)
   2a8e4:	feb42423          	sw	a1,-24(s0)
   2a8e8:	fec42223          	sw	a2,-28(s0)
   2a8ec:	fec42703          	lw	a4,-20(s0)
   2a8f0:	00100793          	li	a5,1
   2a8f4:	00f70a63          	beq	a4,a5,2a908 <write+0x38>
   2a8f8:	fec42703          	lw	a4,-20(s0)
   2a8fc:	00200793          	li	a5,2
   2a900:	02f70663          	beq	a4,a5,2a92c <write+0x5c>
   2a904:	04c0006f          	j	2a950 <write+0x80>
   2a908:	fe442783          	lw	a5,-28(s0)
   2a90c:	00000693          	li	a3,0
   2a910:	00078613          	mv	a2,a5
   2a914:	fe842583          	lw	a1,-24(s0)
   2a918:	0002b7b7          	lui	a5,0x2b
   2a91c:	13078513          	add	a0,a5,304 # 2b130 <DEBUG_JTAG>
   2a920:	fddfe0ef          	jal	298fc <altera_avalon_jtag_uart_write>
   2a924:	00050793          	mv	a5,a0
   2a928:	0380006f          	j	2a960 <write+0x90>
   2a92c:	fe442783          	lw	a5,-28(s0)
   2a930:	00000693          	li	a3,0
   2a934:	00078613          	mv	a2,a5
   2a938:	fe842583          	lw	a1,-24(s0)
   2a93c:	0002b7b7          	lui	a5,0x2b
   2a940:	13078513          	add	a0,a5,304 # 2b130 <DEBUG_JTAG>
   2a944:	fb9fe0ef          	jal	298fc <altera_avalon_jtag_uart_write>
   2a948:	00050793          	mv	a5,a0
   2a94c:	0140006f          	j	2a960 <write+0x90>
   2a950:	0002d7b7          	lui	a5,0x2d
   2a954:	05100713          	li	a4,81
   2a958:	38e7ae23          	sw	a4,924(a5) # 2d39c <errno>
   2a95c:	fff00793          	li	a5,-1
   2a960:	00078513          	mv	a0,a5
   2a964:	01c12083          	lw	ra,28(sp)
   2a968:	01812403          	lw	s0,24(sp)
   2a96c:	02010113          	add	sp,sp,32
   2a970:	00008067          	ret

0002a974 <altera_avalon_jtag_uart_read>:
   2a974:	fc010113          	add	sp,sp,-64
   2a978:	02112e23          	sw	ra,60(sp)
   2a97c:	02812c23          	sw	s0,56(sp)
   2a980:	04010413          	add	s0,sp,64
   2a984:	fca42623          	sw	a0,-52(s0)
   2a988:	fcb42423          	sw	a1,-56(s0)
   2a98c:	fcc42223          	sw	a2,-60(s0)
   2a990:	fcd42023          	sw	a3,-64(s0)
   2a994:	fc842783          	lw	a5,-56(s0)
   2a998:	fcf42823          	sw	a5,-48(s0)
   2a99c:	1280006f          	j	2aac4 <altera_avalon_jtag_uart_read+0x150>
   2a9a0:	fcc42783          	lw	a5,-52(s0)
   2a9a4:	0287a783          	lw	a5,40(a5)
   2a9a8:	fcf42c23          	sw	a5,-40(s0)
   2a9ac:	fcc42783          	lw	a5,-52(s0)
   2a9b0:	02c7a783          	lw	a5,44(a5)
   2a9b4:	fcf42e23          	sw	a5,-36(s0)
   2a9b8:	fd842703          	lw	a4,-40(s0)
   2a9bc:	fdc42783          	lw	a5,-36(s0)
   2a9c0:	00f76c63          	bltu	a4,a5,2a9d8 <altera_avalon_jtag_uart_read+0x64>
   2a9c4:	fd842703          	lw	a4,-40(s0)
   2a9c8:	fdc42783          	lw	a5,-36(s0)
   2a9cc:	40f707b3          	sub	a5,a4,a5
   2a9d0:	fcf42a23          	sw	a5,-44(s0)
   2a9d4:	0180006f          	j	2a9ec <altera_avalon_jtag_uart_read+0x78>
   2a9d8:	000017b7          	lui	a5,0x1
   2a9dc:	80078713          	add	a4,a5,-2048 # 800 <__reset-0x27800>
   2a9e0:	fdc42783          	lw	a5,-36(s0)
   2a9e4:	40f707b3          	sub	a5,a4,a5
   2a9e8:	fcf42a23          	sw	a5,-44(s0)
   2a9ec:	fd442783          	lw	a5,-44(s0)
   2a9f0:	06078e63          	beqz	a5,2aa6c <altera_avalon_jtag_uart_read+0xf8>
   2a9f4:	fc442783          	lw	a5,-60(s0)
   2a9f8:	fd442703          	lw	a4,-44(s0)
   2a9fc:	00e7f663          	bgeu	a5,a4,2aa08 <altera_avalon_jtag_uart_read+0x94>
   2aa00:	fc442783          	lw	a5,-60(s0)
   2aa04:	fcf42a23          	sw	a5,-44(s0)
   2aa08:	fcc42783          	lw	a5,-52(s0)
   2aa0c:	03878713          	add	a4,a5,56
   2aa10:	fdc42783          	lw	a5,-36(s0)
   2aa14:	00f707b3          	add	a5,a4,a5
   2aa18:	fd442603          	lw	a2,-44(s0)
   2aa1c:	00078593          	mv	a1,a5
   2aa20:	fd042503          	lw	a0,-48(s0)
   2aa24:	955ff0ef          	jal	2a378 <memcpy>
   2aa28:	fd042703          	lw	a4,-48(s0)
   2aa2c:	fd442783          	lw	a5,-44(s0)
   2aa30:	00f707b3          	add	a5,a4,a5
   2aa34:	fcf42823          	sw	a5,-48(s0)
   2aa38:	fc442703          	lw	a4,-60(s0)
   2aa3c:	fd442783          	lw	a5,-44(s0)
   2aa40:	40f707b3          	sub	a5,a4,a5
   2aa44:	fcf42223          	sw	a5,-60(s0)
   2aa48:	fdc42703          	lw	a4,-36(s0)
   2aa4c:	fd442783          	lw	a5,-44(s0)
   2aa50:	00f707b3          	add	a5,a4,a5
   2aa54:	7ff7f713          	and	a4,a5,2047
   2aa58:	fcc42783          	lw	a5,-52(s0)
   2aa5c:	02e7a623          	sw	a4,44(a5)
   2aa60:	fc442783          	lw	a5,-60(s0)
   2aa64:	f2f04ee3          	bgtz	a5,2a9a0 <altera_avalon_jtag_uart_read+0x2c>
   2aa68:	0080006f          	j	2aa70 <altera_avalon_jtag_uart_read+0xfc>
   2aa6c:	00000013          	nop
   2aa70:	fd042703          	lw	a4,-48(s0)
   2aa74:	fc842783          	lw	a5,-56(s0)
   2aa78:	04f71c63          	bne	a4,a5,2aad0 <altera_avalon_jtag_uart_read+0x15c>
   2aa7c:	fc042703          	lw	a4,-64(s0)
   2aa80:	000047b7          	lui	a5,0x4
   2aa84:	00f777b3          	and	a5,a4,a5
   2aa88:	04079863          	bnez	a5,2aad8 <altera_avalon_jtag_uart_read+0x164>
   2aa8c:	00000013          	nop
   2aa90:	fcc42783          	lw	a5,-52(s0)
   2aa94:	0287a783          	lw	a5,40(a5) # 4028 <__reset-0x23fd8>
   2aa98:	fd842703          	lw	a4,-40(s0)
   2aa9c:	00f71c63          	bne	a4,a5,2aab4 <altera_avalon_jtag_uart_read+0x140>
   2aaa0:	fcc42783          	lw	a5,-52(s0)
   2aaa4:	0247a703          	lw	a4,36(a5)
   2aaa8:	fcc42783          	lw	a5,-52(s0)
   2aaac:	0047a783          	lw	a5,4(a5)
   2aab0:	fef760e3          	bltu	a4,a5,2aa90 <altera_avalon_jtag_uart_read+0x11c>
   2aab4:	fcc42783          	lw	a5,-52(s0)
   2aab8:	0287a783          	lw	a5,40(a5)
   2aabc:	fd842703          	lw	a4,-40(s0)
   2aac0:	02f70063          	beq	a4,a5,2aae0 <altera_avalon_jtag_uart_read+0x16c>
   2aac4:	fc442783          	lw	a5,-60(s0)
   2aac8:	ecf04ce3          	bgtz	a5,2a9a0 <altera_avalon_jtag_uart_read+0x2c>
   2aacc:	0180006f          	j	2aae4 <altera_avalon_jtag_uart_read+0x170>
   2aad0:	00000013          	nop
   2aad4:	0100006f          	j	2aae4 <altera_avalon_jtag_uart_read+0x170>
   2aad8:	00000013          	nop
   2aadc:	0080006f          	j	2aae4 <altera_avalon_jtag_uart_read+0x170>
   2aae0:	00000013          	nop
   2aae4:	fd042703          	lw	a4,-48(s0)
   2aae8:	fc842783          	lw	a5,-56(s0)
   2aaec:	06f70463          	beq	a4,a5,2ab54 <altera_avalon_jtag_uart_read+0x1e0>
   2aaf0:	00800793          	li	a5,8
   2aaf4:	3007b7f3          	csrrc	a5,mstatus,a5
   2aaf8:	fef42623          	sw	a5,-20(s0)
   2aafc:	fec42783          	lw	a5,-20(s0)
   2ab00:	fef42023          	sw	a5,-32(s0)
   2ab04:	fcc42783          	lw	a5,-52(s0)
   2ab08:	0207a783          	lw	a5,32(a5)
   2ab0c:	0017e713          	or	a4,a5,1
   2ab10:	fcc42783          	lw	a5,-52(s0)
   2ab14:	02e7a023          	sw	a4,32(a5)
   2ab18:	fcc42783          	lw	a5,-52(s0)
   2ab1c:	0207a783          	lw	a5,32(a5)
   2ab20:	fef42223          	sw	a5,-28(s0)
   2ab24:	fcc42783          	lw	a5,-52(s0)
   2ab28:	0007a783          	lw	a5,0(a5)
   2ab2c:	00478793          	add	a5,a5,4
   2ab30:	00078713          	mv	a4,a5
   2ab34:	fe442783          	lw	a5,-28(s0)
   2ab38:	00f72023          	sw	a5,0(a4)
   2ab3c:	fe042783          	lw	a5,-32(s0)
   2ab40:	fef42423          	sw	a5,-24(s0)
   2ab44:	fe842783          	lw	a5,-24(s0)
   2ab48:	0087f793          	and	a5,a5,8
   2ab4c:	3007a073          	csrs	mstatus,a5
   2ab50:	00000013          	nop
   2ab54:	fd042703          	lw	a4,-48(s0)
   2ab58:	fc842783          	lw	a5,-56(s0)
   2ab5c:	00f70a63          	beq	a4,a5,2ab70 <altera_avalon_jtag_uart_read+0x1fc>
   2ab60:	fd042703          	lw	a4,-48(s0)
   2ab64:	fc842783          	lw	a5,-56(s0)
   2ab68:	40f707b3          	sub	a5,a4,a5
   2ab6c:	0200006f          	j	2ab8c <altera_avalon_jtag_uart_read+0x218>
   2ab70:	fc042703          	lw	a4,-64(s0)
   2ab74:	000047b7          	lui	a5,0x4
   2ab78:	00f777b3          	and	a5,a4,a5
   2ab7c:	00078663          	beqz	a5,2ab88 <altera_avalon_jtag_uart_read+0x214>
   2ab80:	ff500793          	li	a5,-11
   2ab84:	0080006f          	j	2ab8c <altera_avalon_jtag_uart_read+0x218>
   2ab88:	ffb00793          	li	a5,-5
   2ab8c:	00078513          	mv	a0,a5
   2ab90:	03c12083          	lw	ra,60(sp)
   2ab94:	03812403          	lw	s0,56(sp)
   2ab98:	04010113          	add	sp,sp,64
   2ab9c:	00008067          	ret

0002aba0 <alt_dev_null_write>:
   2aba0:	fe010113          	add	sp,sp,-32
   2aba4:	00812e23          	sw	s0,28(sp)
   2aba8:	02010413          	add	s0,sp,32
   2abac:	fea42623          	sw	a0,-20(s0)
   2abb0:	feb42423          	sw	a1,-24(s0)
   2abb4:	fec42223          	sw	a2,-28(s0)
   2abb8:	fe442783          	lw	a5,-28(s0)
   2abbc:	00078513          	mv	a0,a5
   2abc0:	01c12403          	lw	s0,28(sp)
   2abc4:	02010113          	add	sp,sp,32
   2abc8:	00008067          	ret

0002abcc <alt_dev_reg>:
   2abcc:	fe010113          	add	sp,sp,-32
   2abd0:	00112e23          	sw	ra,28(sp)
   2abd4:	00812c23          	sw	s0,24(sp)
   2abd8:	02010413          	add	s0,sp,32
   2abdc:	fea42623          	sw	a0,-20(s0)
   2abe0:	81418593          	add	a1,gp,-2028 # 2c1e8 <alt_dev_list>
   2abe4:	fec42503          	lw	a0,-20(s0)
   2abe8:	01c000ef          	jal	2ac04 <alt_dev_llist_insert>
   2abec:	00050793          	mv	a5,a0
   2abf0:	00078513          	mv	a0,a5
   2abf4:	01c12083          	lw	ra,28(sp)
   2abf8:	01812403          	lw	s0,24(sp)
   2abfc:	02010113          	add	sp,sp,32
   2ac00:	00008067          	ret

0002ac04 <alt_dev_llist_insert>:
   2ac04:	fd010113          	add	sp,sp,-48
   2ac08:	02812623          	sw	s0,44(sp)
   2ac0c:	03010413          	add	s0,sp,48
   2ac10:	fca42e23          	sw	a0,-36(s0)
   2ac14:	fcb42c23          	sw	a1,-40(s0)
   2ac18:	fdc42783          	lw	a5,-36(s0)
   2ac1c:	00078863          	beqz	a5,2ac2c <alt_dev_llist_insert+0x28>
   2ac20:	fdc42783          	lw	a5,-36(s0)
   2ac24:	0087a783          	lw	a5,8(a5) # 4008 <__reset-0x23ff8>
   2ac28:	00079c63          	bnez	a5,2ac40 <alt_dev_llist_insert+0x3c>
   2ac2c:	0002d7b7          	lui	a5,0x2d
   2ac30:	01600713          	li	a4,22
   2ac34:	38e7ae23          	sw	a4,924(a5) # 2d39c <errno>
   2ac38:	fea00793          	li	a5,-22
   2ac3c:	0540006f          	j	2ac90 <alt_dev_llist_insert+0x8c>
   2ac40:	fdc42783          	lw	a5,-36(s0)
   2ac44:	fd842703          	lw	a4,-40(s0)
   2ac48:	fee42423          	sw	a4,-24(s0)
   2ac4c:	fef42623          	sw	a5,-20(s0)
   2ac50:	fec42783          	lw	a5,-20(s0)
   2ac54:	fe842703          	lw	a4,-24(s0)
   2ac58:	00e7a223          	sw	a4,4(a5)
   2ac5c:	fe842783          	lw	a5,-24(s0)
   2ac60:	0007a703          	lw	a4,0(a5)
   2ac64:	fec42783          	lw	a5,-20(s0)
   2ac68:	00e7a023          	sw	a4,0(a5)
   2ac6c:	fe842783          	lw	a5,-24(s0)
   2ac70:	0007a783          	lw	a5,0(a5)
   2ac74:	fec42703          	lw	a4,-20(s0)
   2ac78:	00e7a223          	sw	a4,4(a5)
   2ac7c:	fe842783          	lw	a5,-24(s0)
   2ac80:	fec42703          	lw	a4,-20(s0)
   2ac84:	00e7a023          	sw	a4,0(a5)
   2ac88:	00000013          	nop
   2ac8c:	00000793          	li	a5,0
   2ac90:	00078513          	mv	a0,a5
   2ac94:	02c12403          	lw	s0,44(sp)
   2ac98:	03010113          	add	sp,sp,48
   2ac9c:	00008067          	ret
   2aca0:	a2bc                	.insn	2, 0xa2bc
   2aca2:	0002                	.insn	2, 0x0002
   2aca4:	0010                	.insn	2, 0x0010
   2aca6:	0000                	.insn	2, 0x
   2aca8:	0000                	.insn	2, 0x
   2acaa:	0000                	.insn	2, 0x
   2acac:	00527a03          	.insn	4, 0x00527a03
   2acb0:	7c01                	.insn	2, 0x7c01
   2acb2:	0105                	.insn	2, 0x0105
   2acb4:	00020d1b          	.insn	4, 0x00020d1b
   2acb8:	0048                	.insn	2, 0x0048
   2acba:	0000                	.insn	2, 0x
   2acbc:	0018                	.insn	2, 0x0018
   2acbe:	0000                	.insn	2, 0x
   2acc0:	f758                	.insn	2, 0xf758
   2acc2:	ffff                	.insn	2, 0xffff
   2acc4:	005c                	.insn	2, 0x005c
   2acc6:	0000                	.insn	2, 0x
   2acc8:	4400                	.insn	2, 0x4400
   2acca:	400e                	.insn	2, 0x400e
   2accc:	9b48                	.insn	2, 0x9b48
   2acce:	440d                	.insn	2, 0x440d
   2acd0:	400e44db          	.insn	4, 0x400e44db
   2acd4:	9a48                	.insn	2, 0x9a48
   2acd6:	440c                	.insn	2, 0x440c
   2acd8:	0b99                	.insn	2, 0x0b99
   2acda:	9844                	.insn	2, 0x9844
   2acdc:	440a                	.insn	2, 0x440a
   2acde:	d7440997          	auipc	s3,0xd7440
   2ace2:	d9d8                	.insn	2, 0xd9d8
   2ace4:	dbda                	.insn	2, 0xdbda
   2ace6:	0e44                	.insn	2, 0x0e44
   2ace8:	4840                	.insn	2, 0x4840
   2acea:	0896                	.insn	2, 0x0896
   2acec:	9544                	.insn	2, 0x9544
   2acee:	06944407          	.insn	4, 0x06944407
   2acf2:	9344                	.insn	2, 0x9344
   2acf4:	4405                	.insn	2, 0x4405
   2acf6:	0492                	.insn	2, 0x0492
   2acf8:	8944                	.insn	2, 0x8944
   2acfa:	02884403          	lbu	s0,40(a6)
   2acfe:	8144                	.insn	2, 0x8144
   2ad00:	0001                	.insn	2, 0x0001
   2ad02:	0000                	.insn	2, 0x
   2ad04:	001c                	.insn	2, 0x001c
   2ad06:	0000                	.insn	2, 0x
   2ad08:	0064                	.insn	2, 0x0064
   2ad0a:	0000                	.insn	2, 0x
   2ad0c:	f768                	.insn	2, 0xf768
   2ad0e:	ffff                	.insn	2, 0xffff
   2ad10:	0018                	.insn	2, 0x0018
   2ad12:	0000                	.insn	2, 0x
   2ad14:	4400                	.insn	2, 0x4400
   2ad16:	100e                	.insn	2, 0x100e
   2ad18:	8948                	.insn	2, 0x8948
   2ad1a:	4404                	.insn	2, 0x4404
   2ad1c:	0288                	.insn	2, 0x0288
   2ad1e:	8144                	.insn	2, 0x8144
   2ad20:	0001                	.insn	2, 0x0001
   2ad22:	0000                	.insn	2, 0x
   2ad24:	002c                	.insn	2, 0x002c
   2ad26:	0000                	.insn	2, 0x
   2ad28:	0000                	.insn	2, 0x
   2ad2a:	0000                	.insn	2, 0x
   2ad2c:	00527a03          	.insn	4, 0x00527a03
   2ad30:	7c01                	.insn	2, 0x7c01
   2ad32:	0101                	.insn	2, 0x0101
   2ad34:	0e020d1b          	.insn	4, 0x0e020d1b
   2ad38:	9b40                	.insn	2, 0x9b40
   2ad3a:	9a0d                	.insn	2, 0x9a0d
   2ad3c:	990c                	.insn	2, 0x990c
   2ad3e:	970a980b          	.insn	4, 0x970a980b
   2ad42:	9609                	.insn	2, 0x9609
   2ad44:	9508                	.insn	2, 0x9508
   2ad46:	93069407          	.insn	4, 0x93069407
   2ad4a:	9205                	.insn	2, 0x9205
   2ad4c:	8904                	.insn	2, 0x8904
   2ad4e:	81028803          	lb	a6,-2032(t0)
   2ad52:	0001                	.insn	2, 0x0001
   2ad54:	0044                	.insn	2, 0x0044
   2ad56:	0000                	.insn	2, 0x
   2ad58:	0034                	.insn	2, 0x0034
   2ad5a:	0000                	.insn	2, 0x
   2ad5c:	f730                	.insn	2, 0xf730
   2ad5e:	ffff                	.insn	2, 0xffff
   2ad60:	0048                	.insn	2, 0x0048
   2ad62:	0000                	.insn	2, 0x
   2ad64:	4400                	.insn	2, 0x4400
   2ad66:	0edb44db          	.insn	4, 0x0edb44db
   2ad6a:	4430                	.insn	2, 0x4430
   2ad6c:	44da                	.insn	2, 0x44da
   2ad6e:	44d9                	.insn	2, 0x44d9
   2ad70:	44d8                	.insn	2, 0x44d8
   2ad72:	d8d744d7          	.insn	4, 0xd8d744d7
   2ad76:	dad9                	.insn	2, 0xdad9
   2ad78:	44200edb          	.insn	4, 0x44200edb
   2ad7c:	44d6                	.insn	2, 0x44d6
   2ad7e:	44d5                	.insn	2, 0x44d5
   2ad80:	44d4                	.insn	2, 0x44d4
   2ad82:	d4d344d3          	.insn	4, 0xd4d344d3
   2ad86:	d6d5                	.insn	2, 0xd6d5
   2ad88:	d9d8                	.insn	2, 0xd9d8
   2ad8a:	dbda                	.insn	2, 0xdbda
   2ad8c:	100e                	.insn	2, 0x100e
   2ad8e:	d244                	.insn	2, 0xd244
   2ad90:	c944                	.insn	2, 0xc944
   2ad92:	c844                	.insn	2, 0xc844
   2ad94:	c144                	.insn	2, 0xc144
   2ad96:	0e44                	.insn	2, 0x0e44
   2ad98:	0000                	.insn	2, 0x
	...
