
coproc_firmware.elf:     file format elf32-littleriscv
coproc_firmware.elf
architecture: riscv:rv32, flags 0x00000112:
EXEC_P, HAS_SYMS, D_PAGED
start address 0x00028334

Program Header:
0x70000003 off    0x000033e6 vaddr 0x00000000 paddr 0x00000000 align 2**0
         filesz 0x00000020 memsz 0x00000000 flags r--
    LOAD off    0x00001000 vaddr 0x00028000 paddr 0x00028000 align 2**12
         filesz 0x00000020 memsz 0x00000020 flags r-x
    LOAD off    0x00001020 vaddr 0x00028020 paddr 0x00028020 align 2**12
         filesz 0x000022ec memsz 0x000022ec flags r-x
    LOAD off    0x0000330c vaddr 0x0002a30c paddr 0x0002a3d4 align 2**12
         filesz 0x000000c8 memsz 0x000000c8 flags rw-
    LOAD off    0x0000049c vaddr 0x0002a49c paddr 0x0002a49c align 2**12
         filesz 0x00000000 memsz 0x0000016c flags rw-

Sections:
Idx Name          Size      VMA       LMA       File off  Algn
  0 .entry        00000020  00028000  00028000  00001000  2**5
                  CONTENTS, ALLOC, LOAD, READONLY, CODE
  1 .exceptions   000002f0  00028020  00028020  00001020  2**2
                  CONTENTS, ALLOC, LOAD, READONLY, CODE
  2 .text         00001d24  00028310  00028310  00001310  2**2
                  CONTENTS, ALLOC, LOAD, READONLY, CODE
  3 .rodata       000002d8  0002a034  0002a034  00003034  2**2
                  CONTENTS, ALLOC, LOAD, READONLY, DATA
  4 .rwdata       000000c8  0002a30c  0002a3d4  0000330c  2**2
                  CONTENTS, ALLOC, LOAD, DATA
  5 .bss          0000016c  0002a49c  0002a49c  0000349c  2**2
                  ALLOC
  6 .SRAM         00000000  0002a608  0002a608  000033d4  2**0
                  CONTENTS
  7 .comment      00000012  00000000  00000000  000033d4  2**0
                  CONTENTS, READONLY
  8 .riscv.attributes 00000020  00000000  00000000  000033e6  2**0
                  CONTENTS, READONLY
  9 .debug_aranges 00000178  00000000  00000000  00003408  2**3
                  CONTENTS, READONLY, DEBUGGING, OCTETS
 10 .debug_info   0000087c  00000000  00000000  00003580  2**0
                  CONTENTS, READONLY, DEBUGGING, OCTETS
 11 .debug_abbrev 000004de  00000000  00000000  00003dfc  2**0
                  CONTENTS, READONLY, DEBUGGING, OCTETS
 12 .debug_line   00000bba  00000000  00000000  000042da  2**0
                  CONTENTS, READONLY, DEBUGGING, OCTETS
 13 .debug_frame  000000dc  00000000  00000000  00004e94  2**2
                  CONTENTS, READONLY, DEBUGGING, OCTETS
 14 .debug_str    00000760  00000000  00000000  00004f70  2**0
                  CONTENTS, READONLY, DEBUGGING, OCTETS
 15 .debug_ranges 00000020  00000000  00000000  000056d0  2**3
                  CONTENTS, READONLY, DEBUGGING, OCTETS
 16 .debug_rnglists 0000006d  00000000  00000000  000056f0  2**0
                  CONTENTS, READONLY, DEBUGGING, OCTETS
 17 .debug_line_str 00000313  00000000  00000000  0000575d  2**0
                  CONTENTS, READONLY, DEBUGGING, OCTETS
 18 .debug_loclists 0000011f  00000000  00000000  00005a70  2**0
                  CONTENTS, READONLY, DEBUGGING, OCTETS
SYMBOL TABLE:
00028000 l    d  .entry	00000000 .entry
00028020 l    d  .exceptions	00000000 .exceptions
00028310 l    d  .text	00000000 .text
0002a034 l    d  .rodata	00000000 .rodata
0002a30c l    d  .rwdata	00000000 .rwdata
0002a49c l    d  .bss	00000000 .bss
0002a608 l    d  .SRAM	00000000 .SRAM
00000000 l    d  .comment	00000000 .comment
00000000 l    d  .riscv.attributes	00000000 .riscv.attributes
00000000 l    d  .debug_aranges	00000000 .debug_aranges
00000000 l    d  .debug_info	00000000 .debug_info
00000000 l    d  .debug_abbrev	00000000 .debug_abbrev
00000000 l    d  .debug_line	00000000 .debug_line
00000000 l    d  .debug_frame	00000000 .debug_frame
00000000 l    d  .debug_str	00000000 .debug_str
00000000 l    d  .debug_ranges	00000000 .debug_ranges
00000000 l    d  .debug_rnglists	00000000 .debug_rnglists
00000000 l    d  .debug_line_str	00000000 .debug_line_str
00000000 l    d  .debug_loclists	00000000 .debug_loclists
00000000 l    df *ABS*	00000000 crt0.S.obj
00028430 l       .text	00000000 alt_after_alt_main
00000000 l    df *ABS*	00000000 machine_trap.S.obj
00028020 l       .exceptions	00000000 save_registers
00000000 l    df *ABS*	00000000 alt_irq_handler.c
00000000 l    df *ABS*	00000000 main.c
00000000 l    df *ABS*	00000000 alt_load.c
00028434 l     F .text	00000064 alt_load_section
00000000 l    df *ABS*	00000000 alt_log_printf.c
00000000 l    df *ABS*	00000000 alt_main.c
00000000 l    df *ABS*	00000000 alt_putstr.c
00000000 l    df *ABS*	00000000 alt_tick.c
00000000 l    df *ABS*	00000000 alt_sys_init.c
00000000 l    df *ABS*	00000000 altera_avalon_jtag_uart_write.c
00000000 l    df *ABS*	00000000 alt_log_macro.S.obj
000293ec l       .text	00000000 tx_next_char
00029420 l       .text	00000000 end_tx
000293f8 l       .text	00000000 wait_tx_ready_loop
00000000 l    df *ABS*	00000000 alt_dcache_flush_all.c
00000000 l    df *ABS*	00000000 alt_icache_flush_all.c
00000000 l    df *ABS*	00000000 intel_niosv_irq.c
00000000 l    df *ABS*	00000000 mtimer.c
00000000 l    df *ABS*	00000000 stack_protector.c
00000000 l    df *ABS*	00000000 puts.c
00000000 l    df *ABS*	00000000 strlen.c
00000000 l    df *ABS*	00000000 signal.c
0002a588 l     O .bss	00000080 _sig_func
00000000 l    df *ABS*	00000000 save-restore.o
00000000 l    df *ABS*	00000000 muldi3.o
00000000 l    df *ABS*	00000000 div.o
00000000 l    df *ABS*	00000000 alt_io_redirect.c
00029aac l     F .text	00000048 putc_wrapper
00029af4 l     F .text	00000068 getc_wrapper
0002a3a8 l     O .rwdata	00000014 __stdio
00029b5c l     F .text	000000d0 alt_open_fd
00000000 l    df *ABS*	00000000 alt_open.c
00000000 l    df *ABS*	00000000 alt_read.c
00000000 l    df *ABS*	00000000 alt_release_fd.c
00000000 l    df *ABS*	00000000 alt_write.c
00000000 l    df *ABS*	00000000 altera_avalon_jtag_uart_read.c
00000000 l    df *ABS*	00000000 errno.c
00028f6c g     F .text	00000114 alt_main
0002a4d8 g     O .bss	00000080 alt_irq
0002a3d4 g       *ABS*	00000000 __flash_rwdata_start
0002a608 g       *ABS*	00000000 __alt_heap_start
0002abbc g       *ABS*	00000000 __global_pointer$
0002a300 g     O .rodata	00000004 stdout
00029928 g     F .text	0000004c .hidden __riscv_save_8
0002a30c g       *ABS*	00000000 __tls_base
000299bc g     F .text	00000018 .hidden __riscv_restore_3
00028d68 g     F .text	0000005c alt_log_jtag_uart_isr_proc
000280c0 g     F .exceptions	00000028 is_ecc_handler_present
00029994 g     F .text	00000040 .hidden __riscv_restore_10
0002a4d0 g     O .bss	00000004 __stack_chk_guard
00029928 g     F .text	0000004c .hidden __riscv_save_11
0002a3c0 g     O .rwdata	00000001 alt_log_write_on_flag
00029080 g     F .text	0000004c alt_putstr
0002a3c3 g     O .rwdata	00000001 alt_log_jtag_uart_isr_on_flag
00028000 g     F .entry	00000004 __reset
00028020 g       *ABS*	00000000 __flash_exceptions_start
0002a4d4 g     O .bss	00000004 errno
0002a558 g     O .bss	00000011 alt_log_write_buf
0002a4b0 g     O .bss	00000004 alt_argv
000299bc g     F .text	00000018 .hidden __riscv_restore_2
0002a608 g     O .bss	00000000 alt_fd_list
0002a328 g     O .rwdata	0000001d alt_log_msg_alt_main
0002a3c2 g     O .rwdata	00000001 alt_log_jtag_uart_alarm_on_flag
000296c0 g     F .text	000000b0 alt_niosv_timer_sc_isr
00029c2c g     F .text	0000006c alt_io_redirect
0002983c g     F .text	00000068 puts
00029a00 g     F .text	00000048 .hidden __hidden___udivsi3
00029e34 g     F .text	00000104 altera_avalon_jtag_uart_read
00029a00 g     F .text	00000048 .hidden __udivsi3
000281f4 g     F .exceptions	0000011c handle_trap
00029918 g     F .text	0000005c .hidden __riscv_save_12
00028f00 g     F .text	0000006c alt_log_system_clock
00029994 g     F .text	00000040 .hidden __riscv_restore_11
00028b3c g     F .text	0000009c alt_log_printf_proc
00029974 g     F .text	00000018 .hidden __riscv_save_1
0002a3c4 g     O .rwdata	00000001 alt_log_jtag_uart_startup_info_on_flag
000299bc g     F .text	00000018 .hidden __riscv_restore_0
00029944 g     F .text	00000030 .hidden __riscv_save_7
0002a570 g     O .bss	00000018 alt_log_jtag_uart_alarm_1
000297ec g     F .text	00000030 __stack_chk_init
000299a8 g     F .text	0000002c .hidden __riscv_restore_5
0002a608 g       *ABS*	00000000 __bss_end
00029164 g     F .text	00000154 alt_tick
0002a4a8 g     O .bss	00000004 alt_system_clock_in_sec
00028d20 g     F .text	00000048 alt_log_jtag_uart_startup_info
0002981c  w    F .text	00000020 __stack_chk_fail
0002a30c g       *ABS*	00000000 __tbss_start
00029770 g     F .text	0000007c alt_niosv_mtimecmp_interrupt_init
000290cc g     F .text	00000098 alt_alarm_stop
0002a3c1 g     O .rwdata	00000001 alt_log_sys_clk_on_flag
000299a8 g     F .text	0000002c .hidden __riscv_restore_6
00028108 g     F .exceptions	000000ec alt_irq_handler
000285d0 g     F .text	0000056c alt_log_private_printf
0002a30c g     O .rwdata	00000019 alt_log_msg_bss
00029534 g     F .text	00000084 alt_niosv_mtime_get
00029424 g     F .text	0000001c alt_dcache_flush_all
000280e8 g     F .exceptions	00000020 break_operation
0002a3d4 g       *ABS*	00000000 __ram_rwdata_end
00029d9c g     F .text	00000098 write
00029510 g     F .text	00000024 alt_timestamp_freq
0002a30c g       *ABS*	00000000 __ram_rodata_end
00029928 g     F .text	0000004c .hidden __riscv_save_9
00029a48 g     F .text	00000010 .hidden __umodsi3
00029944 g     F .text	00000030 .hidden __riscv_save_4
0002a608 g       *ABS*	00000000 end
00028518 g     F .text	00000058 alt_log_txchar
0002d000 g       *ABS*	00000000 __alt_stack_pointer
00029354 g     F .text	00000098 altera_avalon_jtag_uart_write
0002a308 g     O .rodata	00000004 stdin
00029974 g     F .text	00000018 .hidden __riscv_save_3
00028334 g     F .text	00000100 _start
0002a4b8 g     O .bss	00000004 _alt_tick_rate
0002a4c0 g     O .bss	00000008 _alt_nticks
00029ccc g     F .text	00000064 read
00029634 g     F .text	0000008c alt_niosv_mtimecmp_get
000292f0 g     F .text	00000064 alt_sys_init
0002a30c g       *ABS*	00000000 __tdata_source
000293ec g       .text	00000000 tx_log_str
0002981c g     F .text	00000020 __stack_chk_fail_weak
000299d4 g     F .text	00000024 .hidden __mulsi3
0002a30c g       *ABS*	00000000 __ram_rwdata_start
0002a034 g       *ABS*	00000000 __ram_rodata_start
0002a4c8 g     O .bss	00000008 alt_niosv_timestamp_offset
0002a3bc g     O .rwdata	00000004 alt_log_boot_on_flag
0002a4a0 g     O .bss	00000004 alt_niosv_timer_interrupt_handler
00028c58 g     F .text	000000c8 alt_log_jtag_uart_print_control_reg
0002a608 g       *ABS*	00000000 __alt_stack_base
00029928 g     F .text	0000004c .hidden __riscv_save_10
000299a8 g     F .text	0000002c .hidden __riscv_restore_4
00029994 g     F .text	00000040 .hidden __riscv_restore_8
00029944 g     F .text	00000030 .hidden __riscv_save_6
0002a49c g       *ABS*	00000000 __bss_start
0002a30c g       *ABS*	00000000 __tdata_start
0002a30c g       *ABS*	00000000 __tdata_end
00029994 g     F .text	00000040 .hidden __riscv_restore_9
000299a8 g     F .text	0000002c .hidden __riscv_restore_7
00028310 g     F .text	00000024 main
0002a4b4 g     O .bss	00000004 alt_envp
0002d000 g       *ABS*	00000000 __alt_heap_limit
00029480 g     F .text	0000003c alt_timestamp_start
00028bd8 g     F .text	00000080 altera_avalon_jtag_uart_report_log
000299f8 g     F .text	00000084 .hidden __divsi3
0002a37c g     O .rwdata	0000002a alt_log_msg_cache
0002d000 g       *ABS*	00000000 __heap_end
0002a034 g       *ABS*	00000000 __flash_rodata_start
000292b8 g     F .text	00000038 alt_irq_init
00029d30 g     F .text	0000006c alt_release_fd
0002a348 g     O .rwdata	00000031 alt_log_msg_stackpointer
0002a304 g     O .rodata	00000004 stderr
0002a4ac g     O .bss	00000004 alt_argc
0002a608 g       *ABS*	00000000 __heap_start
00029974 g     F .text	00000018 .hidden __riscv_save_2
00028020 g       *ABS*	00000000 __ram_exceptions_start
000294bc g     F .text	00000054 alt_timestamp
0002a4a4 g     O .bss	00000004 alt_log_sys_clk_count
00028dc4 g     F .text	0000013c alt_log_write
00029944 g     F .text	00000030 .hidden __riscv_save_5
00028020 g     F .exceptions	00000000 trap_vector
0002a3d4 g       *ABS*	00000000 _edata
0002a608 g       *ABS*	00000000 _end
00028310 g       *ABS*	00000000 __ram_exceptions_end
0002945c g     F .text	00000024 intel_niosv_irq_init
00028004 g       .entry	00000000 exit
00029a7c g     F .text	00000030 .hidden __modsi3
0002d000 g       *ABS*	00000000 __alt_data_end
0002a30c g       *ABS*	00000000 __tbss_end
0002998c g     F .text	00000048 .hidden __riscv_restore_12
00029974 g     F .text	00000018 .hidden __riscv_save_0
00028004 g       .entry	00000000 _exit
0002a3d0 g     O .rwdata	00000004 DEBUG_JTAG
000298a4 g     F .text	0000001c strlen
00029c98 g     F .text	00000034 open
00028000 g       *ABS*	00000000 __alt_mem_SRAM
00029440 g     F .text	0000001c alt_icache_flush_all
000295b8 g     F .text	0000007c alt_niosv_mtimecmp_set
000299bc g     F .text	00000018 .hidden __riscv_restore_1
0002a3c8 g     O .rwdata	00000008 alt_alarm_list
00028570 g     F .text	00000060 alt_log_repchar
00028498 g     F .text	00000080 alt_load
0002a49c g     O .bss	00000004 alt_niosv_software_interrupt_handler
000298c0 g     F .text	00000058 raise



Disassembly of section .entry:

00028000 <__reset>:
 * Jump to the _start entry point in the .text section if reset code
 * is allowed or if optimizing for RTL simulation.
 */

    /* Jump to the _start entry point in the .text section. */
    tail _start
   28000:	3340006f          	j	28334 <_start>

00028004 <_exit>:
	...

Disassembly of section .exceptions:

00028020 <trap_vector>:
    /* Save caller-saved registers on the stack */

#if __riscv_flen == 32 // rv32if
    addi sp, sp, -36 * 4
#elif ALT_CPU_NUM_GPR == 32 // rv32i
	addi sp, sp, -16 * 4
   28020:	fc010113          	add	sp,sp,-64
#else // rv32e (16-bit)
	addi sp, sp, -10 * 4
#endif

    /* rv32e (16-bit), rv32i and rv32if */
    sw ra,  0 * 4(sp)
   28024:	00112023          	sw	ra,0(sp)
    sw t0,  1 * 4(sp)
   28028:	00512223          	sw	t0,4(sp)
    sw t1,  2 * 4(sp)
   2802c:	00612423          	sw	t1,8(sp)
    sw t2,  3 * 4(sp)
   28030:	00712623          	sw	t2,12(sp)
    sw a0,  4 * 4(sp)
   28034:	00a12823          	sw	a0,16(sp)
    sw a1,  5 * 4(sp)
   28038:	00b12a23          	sw	a1,20(sp)
    sw a2,  6 * 4(sp)
   2803c:	00c12c23          	sw	a2,24(sp)
    sw a3,  7 * 4(sp)
   28040:	00d12e23          	sw	a3,28(sp)
    sw a4,  8 * 4(sp)
   28044:	02e12023          	sw	a4,32(sp)
    sw a5,  9 * 4(sp)
   28048:	02f12223          	sw	a5,36(sp)

    /* rv32i and rv32if */
#if ALT_CPU_NUM_GPR == 32 
    sw a6, 10 * 4(sp)
   2804c:	03012423          	sw	a6,40(sp)
    sw a7, 11 * 4(sp)
   28050:	03112623          	sw	a7,44(sp)
    sw t3, 12 * 4(sp)
   28054:	03c12823          	sw	t3,48(sp)
    sw t4, 13 * 4(sp)
   28058:	03d12a23          	sw	t4,52(sp)
    sw t5, 14 * 4(sp)
   2805c:	03e12c23          	sw	t5,56(sp)
    sw t6, 15 * 4(sp)
   28060:	03f12e23          	sw	t6,60(sp)
    fsw fa6, 34 * 4(sp)
    fsw fa7, 35 * 4(sp)
#endif
   
    /* Call handle_trap to dispatch the correct handler, if available */
    csrr a0, mcause
   28064:	34202573          	csrr	a0,mcause
    csrr a1, mepc
   28068:	341025f3          	csrr	a1,mepc
    csrr a2, mtval
   2806c:	34302673          	csrr	a2,mtval
    jal handle_trap
   28070:	184000ef          	jal	281f4 <handle_trap>
    csrw mepc, a0
   28074:	34151073          	csrw	mepc,a0

    /* Restore caller-saved registers */

    /* rv32e (16-bit), rv32i and rv32if */
    lw ra,  0 * 4(sp)
   28078:	00012083          	lw	ra,0(sp)
    lw t0,  1 * 4(sp)
   2807c:	00412283          	lw	t0,4(sp)
    lw t1,  2 * 4(sp)
   28080:	00812303          	lw	t1,8(sp)
    lw t2,  3 * 4(sp)
   28084:	00c12383          	lw	t2,12(sp)
    lw a0,  4 * 4(sp)
   28088:	01012503          	lw	a0,16(sp)
    lw a1,  5 * 4(sp)
   2808c:	01412583          	lw	a1,20(sp)
    lw a2,  6 * 4(sp)
   28090:	01812603          	lw	a2,24(sp)
    lw a3,  7 * 4(sp)
   28094:	01c12683          	lw	a3,28(sp)
    lw a4,  8 * 4(sp)
   28098:	02012703          	lw	a4,32(sp)
    lw a5,  9 * 4(sp)
   2809c:	02412783          	lw	a5,36(sp)

    /* rv32i and rv32if */
#if ALT_CPU_NUM_GPR == 32	
    lw a6, 10 * 4(sp)
   280a0:	02812803          	lw	a6,40(sp)
    lw a7, 11 * 4(sp)
   280a4:	02c12883          	lw	a7,44(sp)
    lw t3, 12 * 4(sp)
   280a8:	03012e03          	lw	t3,48(sp)
    lw t4, 13 * 4(sp)
   280ac:	03412e83          	lw	t4,52(sp)
    lw t5, 14 * 4(sp)
   280b0:	03812f03          	lw	t5,56(sp)
    lw t6, 15 * 4(sp)
   280b4:	03c12f83          	lw	t6,60(sp)
#endif

#if __riscv_flen == 32 // rv32if
    addi sp, sp, 36 * 4
#elif ALT_CPU_NUM_GPR == 32 // rv32i
	addi sp, sp, 16 * 4
   280b8:	04010113          	add	sp,sp,64
    lw s0, 0(sp)
    lw s1, 4(sp)
    addi sp, sp, 8
#endif

    mret
   280bc:	30200073          	mret

000280c0 <is_ecc_handler_present>:
   280c0:	fd010113          	add	sp,sp,-48
   280c4:	02812623          	sw	s0,44(sp)
   280c8:	03010413          	add	s0,sp,48
   280cc:	fca42e23          	sw	a0,-36(s0)
   280d0:	fe042623          	sw	zero,-20(s0)
   280d4:	fec42783          	lw	a5,-20(s0)
   280d8:	00078513          	mv	a0,a5
   280dc:	02c12403          	lw	s0,44(sp)
   280e0:	03010113          	add	sp,sp,48
   280e4:	00008067          	ret

000280e8 <break_operation>:
   280e8:	ff010113          	add	sp,sp,-16
   280ec:	00812623          	sw	s0,12(sp)
   280f0:	01010413          	add	s0,sp,16
   280f4:	00100073          	ebreak
   280f8:	00000013          	nop
   280fc:	00c12403          	lw	s0,12(sp)
   28100:	01010113          	add	sp,sp,16
   28104:	00008067          	ret

00028108 <alt_irq_handler>:
   28108:	fd010113          	add	sp,sp,-48
   2810c:	02112623          	sw	ra,44(sp)
   28110:	02812423          	sw	s0,40(sp)
   28114:	03010413          	add	s0,sp,48
   28118:	00000013          	nop
   2811c:	344027f3          	csrr	a5,mip
   28120:	fef42023          	sw	a5,-32(s0)
   28124:	304027f3          	csrr	a5,mie
   28128:	fef42223          	sw	a5,-28(s0)
   2812c:	fe042703          	lw	a4,-32(s0)
   28130:	fe442783          	lw	a5,-28(s0)
   28134:	00f777b3          	and	a5,a4,a5
   28138:	0107d793          	srl	a5,a5,0x10
   2813c:	fcf42a23          	sw	a5,-44(s0)
   28140:	fc042e23          	sw	zero,-36(s0)
   28144:	00100793          	li	a5,1
   28148:	fcf42c23          	sw	a5,-40(s0)
   2814c:	fd442703          	lw	a4,-44(s0)
   28150:	fd842783          	lw	a5,-40(s0)
   28154:	00f777b3          	and	a5,a4,a5
   28158:	04078e63          	beqz	a5,281b4 <alt_irq_handler+0xac>
   2815c:	91c18713          	add	a4,gp,-1764 # 2a4d8 <alt_irq>
   28160:	fdc42783          	lw	a5,-36(s0)
   28164:	00379793          	sll	a5,a5,0x3
   28168:	00f707b3          	add	a5,a4,a5
   2816c:	0007a703          	lw	a4,0(a5)
   28170:	91c18693          	add	a3,gp,-1764 # 2a4d8 <alt_irq>
   28174:	fdc42783          	lw	a5,-36(s0)
   28178:	00379793          	sll	a5,a5,0x3
   2817c:	00f687b3          	add	a5,a3,a5
   28180:	0047a783          	lw	a5,4(a5)
   28184:	00078513          	mv	a0,a5
   28188:	000700e7          	jalr	a4
   2818c:	00000013          	nop
   28190:	344027f3          	csrr	a5,mip
   28194:	fef42423          	sw	a5,-24(s0)
   28198:	304027f3          	csrr	a5,mie
   2819c:	fef42623          	sw	a5,-20(s0)
   281a0:	fe842703          	lw	a4,-24(s0)
   281a4:	fec42783          	lw	a5,-20(s0)
   281a8:	00f777b3          	and	a5,a4,a5
   281ac:	0107d793          	srl	a5,a5,0x10
   281b0:	0200006f          	j	281d0 <alt_irq_handler+0xc8>
   281b4:	fd842783          	lw	a5,-40(s0)
   281b8:	00179793          	sll	a5,a5,0x1
   281bc:	fcf42c23          	sw	a5,-40(s0)
   281c0:	fdc42783          	lw	a5,-36(s0)
   281c4:	00178793          	add	a5,a5,1
   281c8:	fcf42e23          	sw	a5,-36(s0)
   281cc:	f81ff06f          	j	2814c <alt_irq_handler+0x44>
   281d0:	fcf42a23          	sw	a5,-44(s0)
   281d4:	fd442783          	lw	a5,-44(s0)
   281d8:	f60794e3          	bnez	a5,28140 <alt_irq_handler+0x38>
   281dc:	00000013          	nop
   281e0:	00000013          	nop
   281e4:	02c12083          	lw	ra,44(sp)
   281e8:	02812403          	lw	s0,40(sp)
   281ec:	03010113          	add	sp,sp,48
   281f0:	00008067          	ret

000281f4 <handle_trap>:
   281f4:	fd010113          	add	sp,sp,-48
   281f8:	02112623          	sw	ra,44(sp)
   281fc:	02812423          	sw	s0,40(sp)
   28200:	03010413          	add	s0,sp,48
   28204:	fca42e23          	sw	a0,-36(s0)
   28208:	fcb42c23          	sw	a1,-40(s0)
   2820c:	fcc42a23          	sw	a2,-44(s0)
   28210:	fdc42703          	lw	a4,-36(s0)
   28214:	800007b7          	lui	a5,0x80000
   28218:	00f777b3          	and	a5,a4,a5
   2821c:	fef42423          	sw	a5,-24(s0)
   28220:	fdc42703          	lw	a4,-36(s0)
   28224:	800007b7          	lui	a5,0x80000
   28228:	fff78793          	add	a5,a5,-1 # 7fffffff <__alt_data_end+0x7ffd2fff>
   2822c:	00f777b3          	and	a5,a4,a5
   28230:	fef42623          	sw	a5,-20(s0)
   28234:	fe842783          	lw	a5,-24(s0)
   28238:	08078e63          	beqz	a5,282d4 <handle_trap+0xe0>
   2823c:	fec42703          	lw	a4,-20(s0)
   28240:	00300793          	li	a5,3
   28244:	02f70c63          	beq	a4,a5,2827c <handle_trap+0x88>
   28248:	fec42703          	lw	a4,-20(s0)
   2824c:	00700793          	li	a5,7
   28250:	04f71a63          	bne	a4,a5,282a4 <handle_trap+0xb0>
   28254:	8e41a783          	lw	a5,-1820(gp) # 2a4a0 <alt_niosv_timer_interrupt_handler>
   28258:	08078a63          	beqz	a5,282ec <handle_trap+0xf8>
   2825c:	00000013          	nop
   28260:	8e41a783          	lw	a5,-1820(gp) # 2a4a0 <alt_niosv_timer_interrupt_handler>
   28264:	fd442603          	lw	a2,-44(s0)
   28268:	fd842583          	lw	a1,-40(s0)
   2826c:	fdc42503          	lw	a0,-36(s0)
   28270:	000780e7          	jalr	a5
   28274:	00000013          	nop
   28278:	0740006f          	j	282ec <handle_trap+0xf8>
   2827c:	8e01a783          	lw	a5,-1824(gp) # 2a49c <alt_niosv_software_interrupt_handler>
   28280:	06078a63          	beqz	a5,282f4 <handle_trap+0x100>
   28284:	00000013          	nop
   28288:	8e01a783          	lw	a5,-1824(gp) # 2a49c <alt_niosv_software_interrupt_handler>
   2828c:	fd442603          	lw	a2,-44(s0)
   28290:	fd842583          	lw	a1,-40(s0)
   28294:	fdc42503          	lw	a0,-36(s0)
   28298:	000780e7          	jalr	a5
   2829c:	00000013          	nop
   282a0:	0540006f          	j	282f4 <handle_trap+0x100>
   282a4:	fec42703          	lw	a4,-20(s0)
   282a8:	00f00793          	li	a5,15
   282ac:	00e7f663          	bgeu	a5,a4,282b8 <handle_trap+0xc4>
   282b0:	e59ff0ef          	jal	28108 <alt_irq_handler>
   282b4:	0440006f          	j	282f8 <handle_trap+0x104>
   282b8:	fd442683          	lw	a3,-44(s0)
   282bc:	fd842603          	lw	a2,-40(s0)
   282c0:	fec42583          	lw	a1,-20(s0)
   282c4:	0002a7b7          	lui	a5,0x2a
   282c8:	04878513          	add	a0,a5,72 # 2a048 <__flash_rodata_start+0x14>
   282cc:	071000ef          	jal	28b3c <alt_log_printf_proc>
   282d0:	0280006f          	j	282f8 <handle_trap+0x104>
   282d4:	fec42503          	lw	a0,-20(s0)
   282d8:	de9ff0ef          	jal	280c0 <is_ecc_handler_present>
   282dc:	00050793          	mv	a5,a0
   282e0:	00079c63          	bnez	a5,282f8 <handle_trap+0x104>
   282e4:	e05ff0ef          	jal	280e8 <break_operation>
   282e8:	0100006f          	j	282f8 <handle_trap+0x104>
   282ec:	00000013          	nop
   282f0:	0080006f          	j	282f8 <handle_trap+0x104>
   282f4:	00000013          	nop
   282f8:	fd842783          	lw	a5,-40(s0)
   282fc:	00078513          	mv	a0,a5
   28300:	02c12083          	lw	ra,44(sp)
   28304:	02812403          	lw	s0,40(sp)
   28308:	03010113          	add	sp,sp,48
   2830c:	00008067          	ret

Disassembly of section .text:

00028310 <main>:
   28310:	ff010113          	add	sp,sp,-16
   28314:	00112623          	sw	ra,12(sp)
   28318:	00812423          	sw	s0,8(sp)
   2831c:	01010413          	add	s0,sp,16
   28320:	0002a7b7          	lui	a5,0x2a
   28324:	03478513          	add	a0,a5,52 # 2a034 <__flash_rodata_start>
   28328:	559000ef          	jal	29080 <alt_putstr>
   2832c:	00000013          	nop
   28330:	ffdff06f          	j	2832c <main+0x1c>

00028334 <_start>:
    .type _start, @function
_start:
#if ALT_CPU_HAS_CSR_SUPPORT
    /* assume that we are in machine mode on startup */
    /* setup trap to catch anything that goes wrong early in the boot process */
    la t0, trap_vector
   28334:	00000297          	auipc	t0,0x0
   28338:	cec28293          	add	t0,t0,-788 # 28020 <trap_vector>
    csrw mtvec, t0
   2833c:	30529073          	csrw	mtvec,t0

    /* disable all interrupt */
    li t0, 0x88
   28340:	08800293          	li	t0,136
    csrc mstatus, t0
   28344:	3002b073          	csrc	mstatus,t0
    csrw mie, zero
   28348:	30401073          	csrw	mie,zero
    csrw mip, zero
   2834c:	34401073          	csrw	mip,zero
#endif /* Initialize Data Cache */
#endif /* ALT_SIM_OPTIMIZE */

    .option push
    .option norelax
    la gp, __global_pointer$
   28350:	00003197          	auipc	gp,0x3
   28354:	86c18193          	add	gp,gp,-1940 # 2abbc <__global_pointer$>
    .option pop

    /* Log that the stack pointer is about to be setup. */
#ifdef ALT_LOG_ENABLE
    ALT_LOG_PUTS(alt_log_msg_stackpointer)
   28358:	00002597          	auipc	a1,0x2
   2835c:	06458593          	add	a1,a1,100 # 2a3bc <alt_log_boot_on_flag>
   28360:	0005a503          	lw	a0,0(a1)
   28364:	00050863          	beqz	a0,28374 <_start+0x40>
   28368:	00002517          	auipc	a0,0x2
   2836c:	fe050513          	add	a0,a0,-32 # 2a348 <alt_log_msg_stackpointer>
   28370:	07c010ef          	jal	293ec <tx_log_str>

    /*
     * Now that the caches are initialized, set up the stack pointer and global pointer.
     * The values provided by the linker are assumed to be correctly aligned.
     */
    la sp, __alt_stack_pointer
   28374:	00005117          	auipc	sp,0x5
   28378:	c8c10113          	add	sp,sp,-884 # 2d000 <__alt_data_end>
 * region. The linker script guarantees that these values are word aligned.
 */
#ifndef ALT_SIM_OPTIMIZE
    /* Log that the BSS is about to be cleared. */
#ifdef ALT_LOG_ENABLE
    ALT_LOG_PUTS(alt_log_msg_bss)
   2837c:	00002597          	auipc	a1,0x2
   28380:	04058593          	add	a1,a1,64 # 2a3bc <alt_log_boot_on_flag>
   28384:	0005a503          	lw	a0,0(a1)
   28388:	00050863          	beqz	a0,28398 <_start+0x64>
   2838c:	00002517          	auipc	a0,0x2
   28390:	f8050513          	add	a0,a0,-128 # 2a30c <alt_log_msg_bss>
   28394:	058010ef          	jal	293ec <tx_log_str>
#endif /* ALT_LOG_ENABLE */

    la t1, __bss_start
   28398:	00002317          	auipc	t1,0x2
   2839c:	10430313          	add	t1,t1,260 # 2a49c <alt_niosv_software_interrupt_handler>
    la t2, __bss_end
   283a0:	00002397          	auipc	t2,0x2
   283a4:	26838393          	add	t2,t2,616 # 2a608 <alt_fd_list>
0:
    sw zero, (t1)
   283a8:	00032023          	sw	zero,0(t1)
    addi t1, t1, 4
   283ac:	00430313          	add	t1,t1,4
    bltu t1, t2, 0b
   283b0:	fe736ce3          	bltu	t1,t2,283a8 <_start+0x74>
/*
 * The alt_load() facility is normally used when there is no bootloader.
 * It copies some sections into RAM so it acts like a mini-bootloader.
 */
#ifdef CALL_ALT_LOAD
    call alt_load
   283b4:	0e4000ef          	jal	28498 <alt_load>
 */
#ifndef ALT_SIM_OPTIMIZE
.globl __tbss_start
.globl __tbss_end

    la t1, __tbss_start
   283b8:	00002317          	auipc	t1,0x2
   283bc:	f5430313          	add	t1,t1,-172 # 2a30c <alt_log_msg_bss>
    la t2, __tbss_end
   283c0:	00002397          	auipc	t2,0x2
   283c4:	f4c38393          	add	t2,t2,-180 # 2a30c <alt_log_msg_bss>
    
    // Check if we need to skip this (if .tbss is empty)
    bgeu t1, t2, 1f
   283c8:	00737863          	bgeu	t1,t2,283d8 <_start+0xa4>
0:
    sw zero, (t1)
   283cc:	00032023          	sw	zero,0(t1)
    addi t1, t1, 4
   283d0:	00430313          	add	t1,t1,4
    bltu t1, t2, 0b
   283d4:	fe736ce3          	bltu	t1,t2,283cc <_start+0x98>
// Copy tdata to tdata golden source location
.globl __tdata_start
.globl __tdata_end
.globl __tdata_source

    la t0, __tdata_start
   283d8:	00002297          	auipc	t0,0x2
   283dc:	f3428293          	add	t0,t0,-204 # 2a30c <alt_log_msg_bss>
    la t1, __tdata_end
   283e0:	00002317          	auipc	t1,0x2
   283e4:	f2c30313          	add	t1,t1,-212 # 2a30c <alt_log_msg_bss>
    la t2, __tdata_source
   283e8:	00002397          	auipc	t2,0x2
   283ec:	f2438393          	add	t2,t2,-220 # 2a30c <alt_log_msg_bss>

    // Check if we need to skip this (if .tdata is empty)
    bgeu t0, t1, 1f
   283f0:	0062fc63          	bgeu	t0,t1,28408 <_start+0xd4>
0:
    lw s1, (t0)
   283f4:	0002a483          	lw	s1,0(t0)
    sw s1, (t2)
   283f8:	0093a023          	sw	s1,0(t2)
    addi t0, t0, 4
   283fc:	00428293          	add	t0,t0,4
    addi t2, t2, 4
   28400:	00438393          	add	t2,t2,4
    bltu t0, t1, 0b
   28404:	fe62e8e3          	bltu	t0,t1,283f4 <_start+0xc0>
1:

// Assign thread pointer register (tp) to main thread tls base
.globl __tls_base
    la tp, __tls_base
   28408:	00002217          	auipc	tp,0x2
   2840c:	f0420213          	add	tp,tp,-252 # 2a30c <alt_log_msg_bss>

    /* Log that alt_main is about to be called. */
#ifdef ALT_LOG_ENABLE
    ALT_LOG_PUTS(alt_log_msg_alt_main)
   28410:	00002597          	auipc	a1,0x2
   28414:	fac58593          	add	a1,a1,-84 # 2a3bc <alt_log_boot_on_flag>
   28418:	0005a503          	lw	a0,0(a1)
   2841c:	00050863          	beqz	a0,2842c <_start+0xf8>
   28420:	00002517          	auipc	a0,0x2
   28424:	f0850513          	add	a0,a0,-248 # 2a328 <alt_log_msg_alt_main>
   28428:	7c5000ef          	jal	293ec <tx_log_str>
#endif /* ALT_LOG_ENABLE */

    /* Call the C entry point. It should never return. */
    call alt_main
   2842c:	341000ef          	jal	28f6c <alt_main>

00028430 <alt_after_alt_main>:

    /* Wait in infinite loop in case alt_main does return. */
alt_after_alt_main:
    j alt_after_alt_main
   28430:	0000006f          	j	28430 <alt_after_alt_main>

00028434 <alt_load_section>:
   28434:	fe010113          	add	sp,sp,-32
   28438:	00812e23          	sw	s0,28(sp)
   2843c:	02010413          	add	s0,sp,32
   28440:	fea42623          	sw	a0,-20(s0)
   28444:	feb42423          	sw	a1,-24(s0)
   28448:	fec42223          	sw	a2,-28(s0)
   2844c:	fe842703          	lw	a4,-24(s0)
   28450:	fec42783          	lw	a5,-20(s0)
   28454:	02f70a63          	beq	a4,a5,28488 <alt_load_section+0x54>
   28458:	0240006f          	j	2847c <alt_load_section+0x48>
   2845c:	fec42703          	lw	a4,-20(s0)
   28460:	00470793          	add	a5,a4,4
   28464:	fef42623          	sw	a5,-20(s0)
   28468:	fe842783          	lw	a5,-24(s0)
   2846c:	00478693          	add	a3,a5,4
   28470:	fed42423          	sw	a3,-24(s0)
   28474:	00072703          	lw	a4,0(a4)
   28478:	00e7a023          	sw	a4,0(a5)
   2847c:	fe842703          	lw	a4,-24(s0)
   28480:	fe442783          	lw	a5,-28(s0)
   28484:	fcf71ce3          	bne	a4,a5,2845c <alt_load_section+0x28>
   28488:	00000013          	nop
   2848c:	01c12403          	lw	s0,28(sp)
   28490:	02010113          	add	sp,sp,32
   28494:	00008067          	ret

00028498 <alt_load>:
   28498:	ff010113          	add	sp,sp,-16
   2849c:	00112623          	sw	ra,12(sp)
   284a0:	00812423          	sw	s0,8(sp)
   284a4:	01010413          	add	s0,sp,16
   284a8:	0002a7b7          	lui	a5,0x2a
   284ac:	3d478613          	add	a2,a5,980 # 2a3d4 <__flash_rwdata_start>
   284b0:	0002a7b7          	lui	a5,0x2a
   284b4:	30c78593          	add	a1,a5,780 # 2a30c <alt_log_msg_bss>
   284b8:	0002a7b7          	lui	a5,0x2a
   284bc:	3d478513          	add	a0,a5,980 # 2a3d4 <__flash_rwdata_start>
   284c0:	f75ff0ef          	jal	28434 <alt_load_section>
   284c4:	000287b7          	lui	a5,0x28
   284c8:	31078613          	add	a2,a5,784 # 28310 <main>
   284cc:	000287b7          	lui	a5,0x28
   284d0:	02078593          	add	a1,a5,32 # 28020 <trap_vector>
   284d4:	000287b7          	lui	a5,0x28
   284d8:	02078513          	add	a0,a5,32 # 28020 <trap_vector>
   284dc:	f59ff0ef          	jal	28434 <alt_load_section>
   284e0:	0002a7b7          	lui	a5,0x2a
   284e4:	30c78613          	add	a2,a5,780 # 2a30c <alt_log_msg_bss>
   284e8:	0002a7b7          	lui	a5,0x2a
   284ec:	03478593          	add	a1,a5,52 # 2a034 <__flash_rodata_start>
   284f0:	0002a7b7          	lui	a5,0x2a
   284f4:	03478513          	add	a0,a5,52 # 2a034 <__flash_rodata_start>
   284f8:	f3dff0ef          	jal	28434 <alt_load_section>
   284fc:	729000ef          	jal	29424 <alt_dcache_flush_all>
   28500:	741000ef          	jal	29440 <alt_icache_flush_all>
   28504:	00000013          	nop
   28508:	00c12083          	lw	ra,12(sp)
   2850c:	00812403          	lw	s0,8(sp)
   28510:	01010113          	add	sp,sp,16
   28514:	00008067          	ret

00028518 <alt_log_txchar>:
   28518:	fd010113          	add	sp,sp,-48
   2851c:	02812623          	sw	s0,44(sp)
   28520:	03010413          	add	s0,sp,48
   28524:	fca42e23          	sw	a0,-36(s0)
   28528:	fcb42c23          	sw	a1,-40(s0)
   2852c:	00000013          	nop
   28530:	fd842783          	lw	a5,-40(s0)
   28534:	00478793          	add	a5,a5,4
   28538:	0007a783          	lw	a5,0(a5)
   2853c:	fef42423          	sw	a5,-24(s0)
   28540:	fe842703          	lw	a4,-24(s0)
   28544:	000107b7          	lui	a5,0x10
   28548:	fef764e3          	bltu	a4,a5,28530 <alt_log_txchar+0x18>
   2854c:	fdc42783          	lw	a5,-36(s0)
   28550:	fef42623          	sw	a5,-20(s0)
   28554:	fd842783          	lw	a5,-40(s0)
   28558:	fec42703          	lw	a4,-20(s0)
   2855c:	00e7a023          	sw	a4,0(a5) # 10000 <__reset-0x18000>
   28560:	00000013          	nop
   28564:	02c12403          	lw	s0,44(sp)
   28568:	03010113          	add	sp,sp,48
   2856c:	00008067          	ret

00028570 <alt_log_repchar>:
   28570:	fe010113          	add	sp,sp,-32
   28574:	00112e23          	sw	ra,28(sp)
   28578:	00812c23          	sw	s0,24(sp)
   2857c:	02010413          	add	s0,sp,32
   28580:	00050793          	mv	a5,a0
   28584:	feb42423          	sw	a1,-24(s0)
   28588:	fec42223          	sw	a2,-28(s0)
   2858c:	fef407a3          	sb	a5,-17(s0)
   28590:	0180006f          	j	285a8 <alt_log_repchar+0x38>
   28594:	fef44783          	lbu	a5,-17(s0)
   28598:	fe442703          	lw	a4,-28(s0)
   2859c:	00070593          	mv	a1,a4
   285a0:	00078513          	mv	a0,a5
   285a4:	f75ff0ef          	jal	28518 <alt_log_txchar>
   285a8:	fe842783          	lw	a5,-24(s0)
   285ac:	fff78713          	add	a4,a5,-1
   285b0:	fee42423          	sw	a4,-24(s0)
   285b4:	fef040e3          	bgtz	a5,28594 <alt_log_repchar+0x24>
   285b8:	00000013          	nop
   285bc:	00000013          	nop
   285c0:	01c12083          	lw	ra,28(sp)
   285c4:	01812403          	lw	s0,24(sp)
   285c8:	02010113          	add	sp,sp,32
   285cc:	00008067          	ret

000285d0 <alt_log_private_printf>:
   285d0:	fa010113          	add	sp,sp,-96
   285d4:	04112e23          	sw	ra,92(sp)
   285d8:	04812c23          	sw	s0,88(sp)
   285dc:	04912a23          	sw	s1,84(sp)
   285e0:	06010413          	add	s0,sp,96
   285e4:	faa42623          	sw	a0,-84(s0)
   285e8:	fab42423          	sw	a1,-88(s0)
   285ec:	fac42223          	sw	a2,-92(s0)
   285f0:	fa042e23          	sw	zero,-68(s0)
   285f4:	fc042023          	sw	zero,-64(s0)
   285f8:	fc042223          	sw	zero,-60(s0)
   285fc:	fc042423          	sw	zero,-56(s0)
   28600:	fc042623          	sw	zero,-52(s0)
   28604:	fc042823          	sw	zero,-48(s0)
   28608:	fc042a23          	sw	zero,-44(s0)
   2860c:	fac42783          	lw	a5,-84(s0)
   28610:	faf42a23          	sw	a5,-76(s0)
   28614:	fa042c23          	sw	zero,-72(s0)
   28618:	4ec0006f          	j	28b04 <alt_log_private_printf+0x534>
   2861c:	fb842703          	lw	a4,-72(s0)
   28620:	00200793          	li	a5,2
   28624:	0cf70c63          	beq	a4,a5,286fc <alt_log_private_printf+0x12c>
   28628:	fb842703          	lw	a4,-72(s0)
   2862c:	00200793          	li	a5,2
   28630:	4ce7ca63          	blt	a5,a4,28b04 <alt_log_private_printf+0x534>
   28634:	fb842783          	lw	a5,-72(s0)
   28638:	00078a63          	beqz	a5,2864c <alt_log_private_printf+0x7c>
   2863c:	fb842703          	lw	a4,-72(s0)
   28640:	00100793          	li	a5,1
   28644:	06f70263          	beq	a4,a5,286a8 <alt_log_private_printf+0xd8>
   28648:	4bc0006f          	j	28b04 <alt_log_private_printf+0x534>
   2864c:	fb344703          	lbu	a4,-77(s0)
   28650:	02500793          	li	a5,37
   28654:	02f71e63          	bne	a4,a5,28690 <alt_log_private_printf+0xc0>
   28658:	fa042e23          	sw	zero,-68(s0)
   2865c:	fc042023          	sw	zero,-64(s0)
   28660:	00a00793          	li	a5,10
   28664:	fcf42623          	sw	a5,-52(s0)
   28668:	00100793          	li	a5,1
   2866c:	fcf42823          	sw	a5,-48(s0)
   28670:	fc042a23          	sw	zero,-44(s0)
   28674:	fff00793          	li	a5,-1
   28678:	fcf42223          	sw	a5,-60(s0)
   2867c:	fff00793          	li	a5,-1
   28680:	fcf42423          	sw	a5,-56(s0)
   28684:	00100793          	li	a5,1
   28688:	faf42c23          	sw	a5,-72(s0)
   2868c:	4780006f          	j	28b04 <alt_log_private_printf+0x534>
   28690:	fb344783          	lbu	a5,-77(s0)
   28694:	fa842703          	lw	a4,-88(s0)
   28698:	00070593          	mv	a1,a4
   2869c:	00078513          	mv	a0,a5
   286a0:	e79ff0ef          	jal	28518 <alt_log_txchar>
   286a4:	4600006f          	j	28b04 <alt_log_private_printf+0x534>
   286a8:	fb344703          	lbu	a4,-77(s0)
   286ac:	03000793          	li	a5,48
   286b0:	00f71c63          	bne	a4,a5,286c8 <alt_log_private_printf+0xf8>
   286b4:	00100793          	li	a5,1
   286b8:	faf42e23          	sw	a5,-68(s0)
   286bc:	00200793          	li	a5,2
   286c0:	faf42c23          	sw	a5,-72(s0)
   286c4:	4400006f          	j	28b04 <alt_log_private_printf+0x534>
   286c8:	fb344703          	lbu	a4,-77(s0)
   286cc:	02500793          	li	a5,37
   286d0:	02f71063          	bne	a4,a5,286f0 <alt_log_private_printf+0x120>
   286d4:	fb344783          	lbu	a5,-77(s0)
   286d8:	fa842703          	lw	a4,-88(s0)
   286dc:	00070593          	mv	a1,a4
   286e0:	00078513          	mv	a0,a5
   286e4:	e35ff0ef          	jal	28518 <alt_log_txchar>
   286e8:	fa042c23          	sw	zero,-72(s0)
   286ec:	4180006f          	j	28b04 <alt_log_private_printf+0x534>
   286f0:	00200793          	li	a5,2
   286f4:	faf42c23          	sw	a5,-72(s0)
   286f8:	00000013          	nop
   286fc:	fb344703          	lbu	a4,-77(s0)
   28700:	02e00793          	li	a5,46
   28704:	00f71663          	bne	a4,a5,28710 <alt_log_private_printf+0x140>
   28708:	fc042423          	sw	zero,-56(s0)
   2870c:	3f40006f          	j	28b00 <alt_log_private_printf+0x530>
   28710:	fb344703          	lbu	a4,-77(s0)
   28714:	02f00793          	li	a5,47
   28718:	08e7f463          	bgeu	a5,a4,287a0 <alt_log_private_printf+0x1d0>
   2871c:	fb344703          	lbu	a4,-77(s0)
   28720:	03900793          	li	a5,57
   28724:	06e7ee63          	bltu	a5,a4,287a0 <alt_log_private_printf+0x1d0>
   28728:	fb344783          	lbu	a5,-77(s0)
   2872c:	fd078793          	add	a5,a5,-48
   28730:	faf409a3          	sb	a5,-77(s0)
   28734:	fc842783          	lw	a5,-56(s0)
   28738:	0407d063          	bgez	a5,28778 <alt_log_private_printf+0x1a8>
   2873c:	fc442783          	lw	a5,-60(s0)
   28740:	0007d663          	bgez	a5,2874c <alt_log_private_printf+0x17c>
   28744:	fc042223          	sw	zero,-60(s0)
   28748:	01c0006f          	j	28764 <alt_log_private_printf+0x194>
   2874c:	fc442703          	lw	a4,-60(s0)
   28750:	00070793          	mv	a5,a4
   28754:	00279793          	sll	a5,a5,0x2
   28758:	00e787b3          	add	a5,a5,a4
   2875c:	00179793          	sll	a5,a5,0x1
   28760:	fcf42223          	sw	a5,-60(s0)
   28764:	fb344783          	lbu	a5,-77(s0)
   28768:	fc442703          	lw	a4,-60(s0)
   2876c:	00f707b3          	add	a5,a4,a5
   28770:	fcf42223          	sw	a5,-60(s0)
   28774:	38c0006f          	j	28b00 <alt_log_private_printf+0x530>
   28778:	fc842703          	lw	a4,-56(s0)
   2877c:	00070793          	mv	a5,a4
   28780:	00279793          	sll	a5,a5,0x2
   28784:	00e787b3          	add	a5,a5,a4
   28788:	00179793          	sll	a5,a5,0x1
   2878c:	00078713          	mv	a4,a5
   28790:	fb344783          	lbu	a5,-77(s0)
   28794:	00f707b3          	add	a5,a4,a5
   28798:	fcf42423          	sw	a5,-56(s0)
   2879c:	3640006f          	j	28b00 <alt_log_private_printf+0x530>
   287a0:	fb344703          	lbu	a4,-77(s0)
   287a4:	06c00793          	li	a5,108
   287a8:	00f71863          	bne	a4,a5,287b8 <alt_log_private_printf+0x1e8>
   287ac:	00100793          	li	a5,1
   287b0:	fcf42023          	sw	a5,-64(s0)
   287b4:	34c0006f          	j	28b00 <alt_log_private_printf+0x530>
   287b8:	fb344783          	lbu	a5,-77(s0)
   287bc:	fa878793          	add	a5,a5,-88
   287c0:	02000713          	li	a4,32
   287c4:	32f76a63          	bltu	a4,a5,28af8 <alt_log_private_printf+0x528>
   287c8:	00279713          	sll	a4,a5,0x2
   287cc:	0002a7b7          	lui	a5,0x2a
   287d0:	07c78793          	add	a5,a5,124 # 2a07c <__flash_rodata_start+0x48>
   287d4:	00f707b3          	add	a5,a4,a5
   287d8:	0007a783          	lw	a5,0(a5)
   287dc:	00078067          	jr	a5
   287e0:	fc042783          	lw	a5,-64(s0)
   287e4:	02078e63          	beqz	a5,28820 <alt_log_private_printf+0x250>
   287e8:	fd042783          	lw	a5,-48(s0)
   287ec:	00078e63          	beqz	a5,28808 <alt_log_private_printf+0x238>
   287f0:	fa442783          	lw	a5,-92(s0)
   287f4:	00478713          	add	a4,a5,4
   287f8:	fae42223          	sw	a4,-92(s0)
   287fc:	0007a783          	lw	a5,0(a5)
   28800:	fcf42c23          	sw	a5,-40(s0)
   28804:	0500006f          	j	28854 <alt_log_private_printf+0x284>
   28808:	fa442783          	lw	a5,-92(s0)
   2880c:	00478713          	add	a4,a5,4
   28810:	fae42223          	sw	a4,-92(s0)
   28814:	0007a783          	lw	a5,0(a5)
   28818:	fcf42c23          	sw	a5,-40(s0)
   2881c:	0380006f          	j	28854 <alt_log_private_printf+0x284>
   28820:	fd042783          	lw	a5,-48(s0)
   28824:	00078e63          	beqz	a5,28840 <alt_log_private_printf+0x270>
   28828:	fa442783          	lw	a5,-92(s0)
   2882c:	00478713          	add	a4,a5,4
   28830:	fae42223          	sw	a4,-92(s0)
   28834:	0007a783          	lw	a5,0(a5)
   28838:	fcf42c23          	sw	a5,-40(s0)
   2883c:	0180006f          	j	28854 <alt_log_private_printf+0x284>
   28840:	fa442783          	lw	a5,-92(s0)
   28844:	00478713          	add	a4,a5,4
   28848:	fae42223          	sw	a4,-92(s0)
   2884c:	0007a783          	lw	a5,0(a5)
   28850:	fcf42c23          	sw	a5,-40(s0)
   28854:	fe042223          	sw	zero,-28(s0)
   28858:	fd042783          	lw	a5,-48(s0)
   2885c:	02078063          	beqz	a5,2887c <alt_log_private_printf+0x2ac>
   28860:	fd842783          	lw	a5,-40(s0)
   28864:	0007dc63          	bgez	a5,2887c <alt_log_private_printf+0x2ac>
   28868:	fd842783          	lw	a5,-40(s0)
   2886c:	40f007b3          	neg	a5,a5
   28870:	fcf42c23          	sw	a5,-40(s0)
   28874:	00100793          	li	a5,1
   28878:	fef42223          	sw	a5,-28(s0)
   2887c:	fd842783          	lw	a5,-40(s0)
   28880:	fef42023          	sw	a5,-32(s0)
   28884:	00100793          	li	a5,1
   28888:	fcf42e23          	sw	a5,-36(s0)
   2888c:	00100793          	li	a5,1
   28890:	fef42423          	sw	a5,-24(s0)
   28894:	0280006f          	j	288bc <alt_log_private_printf+0x2ec>
   28898:	fe842783          	lw	a5,-24(s0)
   2889c:	00178793          	add	a5,a5,1
   288a0:	fef42423          	sw	a5,-24(s0)
   288a4:	fcc42783          	lw	a5,-52(s0)
   288a8:	00078593          	mv	a1,a5
   288ac:	fdc42503          	lw	a0,-36(s0)
   288b0:	124010ef          	jal	299d4 <__mulsi3>
   288b4:	00050793          	mv	a5,a0
   288b8:	fcf42e23          	sw	a5,-36(s0)
   288bc:	fcc42783          	lw	a5,-52(s0)
   288c0:	00078593          	mv	a1,a5
   288c4:	fe042503          	lw	a0,-32(s0)
   288c8:	138010ef          	jal	29a00 <__hidden___udivsi3>
   288cc:	00050793          	mv	a5,a0
   288d0:	fef42023          	sw	a5,-32(s0)
   288d4:	fe042783          	lw	a5,-32(s0)
   288d8:	fc0790e3          	bnez	a5,28898 <alt_log_private_printf+0x2c8>
   288dc:	fc442703          	lw	a4,-60(s0)
   288e0:	fe842783          	lw	a5,-24(s0)
   288e4:	40f707b3          	sub	a5,a4,a5
   288e8:	fcf42223          	sw	a5,-60(s0)
   288ec:	fbc42783          	lw	a5,-68(s0)
   288f0:	02078e63          	beqz	a5,2892c <alt_log_private_printf+0x35c>
   288f4:	fe442783          	lw	a5,-28(s0)
   288f8:	02078063          	beqz	a5,28918 <alt_log_private_printf+0x348>
   288fc:	fa842783          	lw	a5,-88(s0)
   28900:	00078593          	mv	a1,a5
   28904:	02d00513          	li	a0,45
   28908:	c11ff0ef          	jal	28518 <alt_log_txchar>
   2890c:	fc442783          	lw	a5,-60(s0)
   28910:	fff78793          	add	a5,a5,-1
   28914:	fcf42223          	sw	a5,-60(s0)
   28918:	fa842603          	lw	a2,-88(s0)
   2891c:	fc442583          	lw	a1,-60(s0)
   28920:	03000513          	li	a0,48
   28924:	c4dff0ef          	jal	28570 <alt_log_repchar>
   28928:	0d40006f          	j	289fc <alt_log_private_printf+0x42c>
   2892c:	fe442783          	lw	a5,-28(s0)
   28930:	00078863          	beqz	a5,28940 <alt_log_private_printf+0x370>
   28934:	fc442783          	lw	a5,-60(s0)
   28938:	fff78793          	add	a5,a5,-1
   2893c:	fcf42223          	sw	a5,-60(s0)
   28940:	fa842603          	lw	a2,-88(s0)
   28944:	fc442583          	lw	a1,-60(s0)
   28948:	02000513          	li	a0,32
   2894c:	c25ff0ef          	jal	28570 <alt_log_repchar>
   28950:	fe442783          	lw	a5,-28(s0)
   28954:	0a078463          	beqz	a5,289fc <alt_log_private_printf+0x42c>
   28958:	fa842783          	lw	a5,-88(s0)
   2895c:	00078593          	mv	a1,a5
   28960:	02d00513          	li	a0,45
   28964:	bb5ff0ef          	jal	28518 <alt_log_txchar>
   28968:	0940006f          	j	289fc <alt_log_private_printf+0x42c>
   2896c:	fdc42583          	lw	a1,-36(s0)
   28970:	fd842503          	lw	a0,-40(s0)
   28974:	08c010ef          	jal	29a00 <__hidden___udivsi3>
   28978:	00050793          	mv	a5,a0
   2897c:	faf40923          	sb	a5,-78(s0)
   28980:	fb244783          	lbu	a5,-78(s0)
   28984:	03078793          	add	a5,a5,48
   28988:	faf40923          	sb	a5,-78(s0)
   2898c:	fb244703          	lbu	a4,-78(s0)
   28990:	03900793          	li	a5,57
   28994:	02e7f263          	bgeu	a5,a4,289b8 <alt_log_private_printf+0x3e8>
   28998:	fd442783          	lw	a5,-44(s0)
   2899c:	00078663          	beqz	a5,289a8 <alt_log_private_printf+0x3d8>
   289a0:	00700793          	li	a5,7
   289a4:	0080006f          	j	289ac <alt_log_private_printf+0x3dc>
   289a8:	02700793          	li	a5,39
   289ac:	fb244703          	lbu	a4,-78(s0)
   289b0:	00e787b3          	add	a5,a5,a4
   289b4:	faf40923          	sb	a5,-78(s0)
   289b8:	fb244783          	lbu	a5,-78(s0)
   289bc:	fa842703          	lw	a4,-88(s0)
   289c0:	00070593          	mv	a1,a4
   289c4:	00078513          	mv	a0,a5
   289c8:	b51ff0ef          	jal	28518 <alt_log_txchar>
   289cc:	fd842783          	lw	a5,-40(s0)
   289d0:	fdc42583          	lw	a1,-36(s0)
   289d4:	00078513          	mv	a0,a5
   289d8:	070010ef          	jal	29a48 <__umodsi3>
   289dc:	00050793          	mv	a5,a0
   289e0:	fcf42c23          	sw	a5,-40(s0)
   289e4:	fcc42783          	lw	a5,-52(s0)
   289e8:	00078593          	mv	a1,a5
   289ec:	fdc42503          	lw	a0,-36(s0)
   289f0:	010010ef          	jal	29a00 <__hidden___udivsi3>
   289f4:	00050793          	mv	a5,a0
   289f8:	fcf42e23          	sw	a5,-36(s0)
   289fc:	fdc42783          	lw	a5,-36(s0)
   28a00:	f60796e3          	bnez	a5,2896c <alt_log_private_printf+0x39c>
   28a04:	fa042c23          	sw	zero,-72(s0)
   28a08:	0f00006f          	j	28af8 <alt_log_private_printf+0x528>
   28a0c:	fc042823          	sw	zero,-48(s0)
   28a10:	dd1ff06f          	j	287e0 <alt_log_private_printf+0x210>
   28a14:	fc042823          	sw	zero,-48(s0)
   28a18:	00800793          	li	a5,8
   28a1c:	fcf42623          	sw	a5,-52(s0)
   28a20:	dc1ff06f          	j	287e0 <alt_log_private_printf+0x210>
   28a24:	fc042823          	sw	zero,-48(s0)
   28a28:	01000793          	li	a5,16
   28a2c:	fcf42623          	sw	a5,-52(s0)
   28a30:	db1ff06f          	j	287e0 <alt_log_private_printf+0x210>
   28a34:	fc042823          	sw	zero,-48(s0)
   28a38:	01000793          	li	a5,16
   28a3c:	fcf42623          	sw	a5,-52(s0)
   28a40:	00100793          	li	a5,1
   28a44:	fcf42a23          	sw	a5,-44(s0)
   28a48:	d99ff06f          	j	287e0 <alt_log_private_printf+0x210>
   28a4c:	fc442783          	lw	a5,-60(s0)
   28a50:	fff78793          	add	a5,a5,-1
   28a54:	fa842603          	lw	a2,-88(s0)
   28a58:	00078593          	mv	a1,a5
   28a5c:	02000513          	li	a0,32
   28a60:	b11ff0ef          	jal	28570 <alt_log_repchar>
   28a64:	fa442783          	lw	a5,-92(s0)
   28a68:	00478713          	add	a4,a5,4
   28a6c:	fae42223          	sw	a4,-92(s0)
   28a70:	0007a783          	lw	a5,0(a5)
   28a74:	fa842703          	lw	a4,-88(s0)
   28a78:	00070593          	mv	a1,a4
   28a7c:	00078513          	mv	a0,a5
   28a80:	a99ff0ef          	jal	28518 <alt_log_txchar>
   28a84:	0740006f          	j	28af8 <alt_log_private_printf+0x528>
   28a88:	fa442783          	lw	a5,-92(s0)
   28a8c:	00478713          	add	a4,a5,4
   28a90:	fae42223          	sw	a4,-92(s0)
   28a94:	0007a783          	lw	a5,0(a5)
   28a98:	fef42623          	sw	a5,-20(s0)
   28a9c:	fc442483          	lw	s1,-60(s0)
   28aa0:	fec42503          	lw	a0,-20(s0)
   28aa4:	601000ef          	jal	298a4 <strlen>
   28aa8:	00050793          	mv	a5,a0
   28aac:	40f487b3          	sub	a5,s1,a5
   28ab0:	fa842603          	lw	a2,-88(s0)
   28ab4:	00078593          	mv	a1,a5
   28ab8:	02000513          	li	a0,32
   28abc:	ab5ff0ef          	jal	28570 <alt_log_repchar>
   28ac0:	0280006f          	j	28ae8 <alt_log_private_printf+0x518>
   28ac4:	fec42783          	lw	a5,-20(s0)
   28ac8:	00178713          	add	a4,a5,1
   28acc:	fee42623          	sw	a4,-20(s0)
   28ad0:	0007c783          	lbu	a5,0(a5)
   28ad4:	00078713          	mv	a4,a5
   28ad8:	fa842783          	lw	a5,-88(s0)
   28adc:	00078593          	mv	a1,a5
   28ae0:	00070513          	mv	a0,a4
   28ae4:	a35ff0ef          	jal	28518 <alt_log_txchar>
   28ae8:	fec42783          	lw	a5,-20(s0)
   28aec:	0007c783          	lbu	a5,0(a5)
   28af0:	fc079ae3          	bnez	a5,28ac4 <alt_log_private_printf+0x4f4>
   28af4:	00000013          	nop
   28af8:	fa042c23          	sw	zero,-72(s0)
   28afc:	0040006f          	j	28b00 <alt_log_private_printf+0x530>
   28b00:	00000013          	nop
   28b04:	fb442783          	lw	a5,-76(s0)
   28b08:	00178713          	add	a4,a5,1
   28b0c:	fae42a23          	sw	a4,-76(s0)
   28b10:	0007c783          	lbu	a5,0(a5)
   28b14:	faf409a3          	sb	a5,-77(s0)
   28b18:	fb344783          	lbu	a5,-77(s0)
   28b1c:	b00790e3          	bnez	a5,2861c <alt_log_private_printf+0x4c>
   28b20:	00000013          	nop
   28b24:	00000013          	nop
   28b28:	05c12083          	lw	ra,92(sp)
   28b2c:	05812403          	lw	s0,88(sp)
   28b30:	05412483          	lw	s1,84(sp)
   28b34:	06010113          	add	sp,sp,96
   28b38:	00008067          	ret

00028b3c <alt_log_printf_proc>:
   28b3c:	fb010113          	add	sp,sp,-80
   28b40:	02112623          	sw	ra,44(sp)
   28b44:	02812423          	sw	s0,40(sp)
   28b48:	03010413          	add	s0,sp,48
   28b4c:	fca42e23          	sw	a0,-36(s0)
   28b50:	00b42223          	sw	a1,4(s0)
   28b54:	00c42423          	sw	a2,8(s0)
   28b58:	00d42623          	sw	a3,12(s0)
   28b5c:	00e42823          	sw	a4,16(s0)
   28b60:	00f42a23          	sw	a5,20(s0)
   28b64:	01042c23          	sw	a6,24(s0)
   28b68:	01142e23          	sw	a7,28(s0)
   28b6c:	9141a703          	lw	a4,-1772(gp) # 2a4d0 <__stack_chk_guard>
   28b70:	fee42623          	sw	a4,-20(s0)
   28b74:	00000713          	li	a4,0
   28b78:	02040793          	add	a5,s0,32
   28b7c:	fcf42c23          	sw	a5,-40(s0)
   28b80:	fd842783          	lw	a5,-40(s0)
   28b84:	fe478793          	add	a5,a5,-28
   28b88:	fef42423          	sw	a5,-24(s0)
   28b8c:	fe842783          	lw	a5,-24(s0)
   28b90:	00078613          	mv	a2,a5
   28b94:	000307b7          	lui	a5,0x30
   28b98:	0e078593          	add	a1,a5,224 # 300e0 <__alt_data_end+0x30e0>
   28b9c:	fdc42503          	lw	a0,-36(s0)
   28ba0:	a31ff0ef          	jal	285d0 <alt_log_private_printf>
   28ba4:	00000793          	li	a5,0
   28ba8:	00078713          	mv	a4,a5
   28bac:	fec42683          	lw	a3,-20(s0)
   28bb0:	9141a783          	lw	a5,-1772(gp) # 2a4d0 <__stack_chk_guard>
   28bb4:	00f6c7b3          	xor	a5,a3,a5
   28bb8:	00000693          	li	a3,0
   28bbc:	00078463          	beqz	a5,28bc4 <alt_log_printf_proc+0x88>
   28bc0:	45d000ef          	jal	2981c <__stack_chk_fail_weak>
   28bc4:	00070513          	mv	a0,a4
   28bc8:	02c12083          	lw	ra,44(sp)
   28bcc:	02812403          	lw	s0,40(sp)
   28bd0:	05010113          	add	sp,sp,80
   28bd4:	00008067          	ret

00028bd8 <altera_avalon_jtag_uart_report_log>:
   28bd8:	fd010113          	add	sp,sp,-48
   28bdc:	02112623          	sw	ra,44(sp)
   28be0:	02812423          	sw	s0,40(sp)
   28be4:	03010413          	add	s0,sp,48
   28be8:	fca42e23          	sw	a0,-36(s0)
   28bec:	0002a7b7          	lui	a5,0x2a
   28bf0:	3c27c783          	lbu	a5,962(a5) # 2a3c2 <alt_log_jtag_uart_alarm_on_flag>
   28bf4:	0ff7f793          	zext.b	a5,a5
   28bf8:	04078463          	beqz	a5,28c40 <altera_avalon_jtag_uart_report_log+0x68>
   28bfc:	fdc42783          	lw	a5,-36(s0)
   28c00:	fef42423          	sw	a5,-24(s0)
   28c04:	0002a7b7          	lui	a5,0x2a
   28c08:	10078793          	add	a5,a5,256 # 2a100 <__flash_rodata_start+0xcc>
   28c0c:	fef42623          	sw	a5,-20(s0)
   28c10:	fe842783          	lw	a5,-24(s0)
   28c14:	0007a783          	lw	a5,0(a5)
   28c18:	fec42603          	lw	a2,-20(s0)
   28c1c:	00078593          	mv	a1,a5
   28c20:	fe842503          	lw	a0,-24(s0)
   28c24:	034000ef          	jal	28c58 <alt_log_jtag_uart_print_control_reg>
   28c28:	8fc1a783          	lw	a5,-1796(gp) # 2a4b8 <_alt_tick_rate>
   28c2c:	00a00593          	li	a1,10
   28c30:	00078513          	mv	a0,a5
   28c34:	5cd000ef          	jal	29a00 <__hidden___udivsi3>
   28c38:	00050793          	mv	a5,a0
   28c3c:	0080006f          	j	28c44 <altera_avalon_jtag_uart_report_log+0x6c>
   28c40:	00000793          	li	a5,0
   28c44:	00078513          	mv	a0,a5
   28c48:	02c12083          	lw	ra,44(sp)
   28c4c:	02812403          	lw	s0,40(sp)
   28c50:	03010113          	add	sp,sp,48
   28c54:	00008067          	ret

00028c58 <alt_log_jtag_uart_print_control_reg>:
   28c58:	fc010113          	add	sp,sp,-64
   28c5c:	02112e23          	sw	ra,60(sp)
   28c60:	02812c23          	sw	s0,56(sp)
   28c64:	04010413          	add	s0,sp,64
   28c68:	fca42623          	sw	a0,-52(s0)
   28c6c:	fcb42423          	sw	a1,-56(s0)
   28c70:	fcc42223          	sw	a2,-60(s0)
   28c74:	fc842783          	lw	a5,-56(s0)
   28c78:	00478793          	add	a5,a5,4
   28c7c:	0007a783          	lw	a5,0(a5)
   28c80:	fcf42823          	sw	a5,-48(s0)
   28c84:	fd042783          	lw	a5,-48(s0)
   28c88:	fcf42a23          	sw	a5,-44(s0)
   28c8c:	fd442783          	lw	a5,-44(s0)
   28c90:	0107d793          	srl	a5,a5,0x10
   28c94:	fcf42c23          	sw	a5,-40(s0)
   28c98:	fd442783          	lw	a5,-44(s0)
   28c9c:	0017d793          	srl	a5,a5,0x1
   28ca0:	0017f793          	and	a5,a5,1
   28ca4:	fcf42e23          	sw	a5,-36(s0)
   28ca8:	fd442783          	lw	a5,-44(s0)
   28cac:	0017f793          	and	a5,a5,1
   28cb0:	fef42023          	sw	a5,-32(s0)
   28cb4:	fd442783          	lw	a5,-44(s0)
   28cb8:	0087d793          	srl	a5,a5,0x8
   28cbc:	0017f793          	and	a5,a5,1
   28cc0:	fef42223          	sw	a5,-28(s0)
   28cc4:	fd442783          	lw	a5,-44(s0)
   28cc8:	0097d793          	srl	a5,a5,0x9
   28ccc:	0017f793          	and	a5,a5,1
   28cd0:	fef42423          	sw	a5,-24(s0)
   28cd4:	fd442783          	lw	a5,-44(s0)
   28cd8:	00a7d793          	srl	a5,a5,0xa
   28cdc:	0017f793          	and	a5,a5,1
   28ce0:	fef42623          	sw	a5,-20(s0)
   28ce4:	fe042883          	lw	a7,-32(s0)
   28ce8:	fdc42803          	lw	a6,-36(s0)
   28cec:	fe442783          	lw	a5,-28(s0)
   28cf0:	fe842703          	lw	a4,-24(s0)
   28cf4:	fec42683          	lw	a3,-20(s0)
   28cf8:	fd842603          	lw	a2,-40(s0)
   28cfc:	fc442583          	lw	a1,-60(s0)
   28d00:	0002a537          	lui	a0,0x2a
   28d04:	10c50513          	add	a0,a0,268 # 2a10c <__flash_rodata_start+0xd8>
   28d08:	e35ff0ef          	jal	28b3c <alt_log_printf_proc>
   28d0c:	00000013          	nop
   28d10:	03c12083          	lw	ra,60(sp)
   28d14:	03812403          	lw	s0,56(sp)
   28d18:	04010113          	add	sp,sp,64
   28d1c:	00008067          	ret

00028d20 <alt_log_jtag_uart_startup_info>:
   28d20:	fd010113          	add	sp,sp,-48
   28d24:	02112623          	sw	ra,44(sp)
   28d28:	02812423          	sw	s0,40(sp)
   28d2c:	03010413          	add	s0,sp,48
   28d30:	fca42e23          	sw	a0,-36(s0)
   28d34:	fcb42c23          	sw	a1,-40(s0)
   28d38:	0002a7b7          	lui	a5,0x2a
   28d3c:	14478793          	add	a5,a5,324 # 2a144 <__flash_rodata_start+0x110>
   28d40:	fef42623          	sw	a5,-20(s0)
   28d44:	fec42603          	lw	a2,-20(s0)
   28d48:	fd842583          	lw	a1,-40(s0)
   28d4c:	fdc42503          	lw	a0,-36(s0)
   28d50:	f09ff0ef          	jal	28c58 <alt_log_jtag_uart_print_control_reg>
   28d54:	00000013          	nop
   28d58:	02c12083          	lw	ra,44(sp)
   28d5c:	02812403          	lw	s0,40(sp)
   28d60:	03010113          	add	sp,sp,48
   28d64:	00008067          	ret

00028d68 <alt_log_jtag_uart_isr_proc>:
   28d68:	fd010113          	add	sp,sp,-48
   28d6c:	02112623          	sw	ra,44(sp)
   28d70:	02812423          	sw	s0,40(sp)
   28d74:	03010413          	add	s0,sp,48
   28d78:	fca42e23          	sw	a0,-36(s0)
   28d7c:	fcb42c23          	sw	a1,-40(s0)
   28d80:	0002a7b7          	lui	a5,0x2a
   28d84:	3c37c783          	lbu	a5,963(a5) # 2a3c3 <alt_log_jtag_uart_isr_on_flag>
   28d88:	0ff7f793          	zext.b	a5,a5
   28d8c:	02078263          	beqz	a5,28db0 <alt_log_jtag_uart_isr_proc+0x48>
   28d90:	0002a7b7          	lui	a5,0x2a
   28d94:	15878793          	add	a5,a5,344 # 2a158 <__flash_rodata_start+0x124>
   28d98:	fef42623          	sw	a5,-20(s0)
   28d9c:	fec42603          	lw	a2,-20(s0)
   28da0:	fdc42583          	lw	a1,-36(s0)
   28da4:	fd842503          	lw	a0,-40(s0)
   28da8:	eb1ff0ef          	jal	28c58 <alt_log_jtag_uart_print_control_reg>
   28dac:	00000013          	nop
   28db0:	00000013          	nop
   28db4:	02c12083          	lw	ra,44(sp)
   28db8:	02812403          	lw	s0,40(sp)
   28dbc:	03010113          	add	sp,sp,48
   28dc0:	00008067          	ret

00028dc4 <alt_log_write>:
   28dc4:	fd010113          	add	sp,sp,-48
   28dc8:	02112623          	sw	ra,44(sp)
   28dcc:	02812423          	sw	s0,40(sp)
   28dd0:	03010413          	add	s0,sp,48
   28dd4:	fca42e23          	sw	a0,-36(s0)
   28dd8:	fcb42c23          	sw	a1,-40(s0)
   28ddc:	0002a7b7          	lui	a5,0x2a
   28de0:	3c07c783          	lbu	a5,960(a5) # 2a3c0 <alt_log_write_on_flag>
   28de4:	0ff7f793          	zext.b	a5,a5
   28de8:	10078463          	beqz	a5,28ef0 <alt_log_write+0x12c>
   28dec:	fd842783          	lw	a5,-40(s0)
   28df0:	00f00713          	li	a4,15
   28df4:	00f77463          	bgeu	a4,a5,28dfc <alt_log_write+0x38>
   28df8:	00f00793          	li	a5,15
   28dfc:	fef42623          	sw	a5,-20(s0)
   28e00:	fec42703          	lw	a4,-20(s0)
   28e04:	00100793          	li	a5,1
   28e08:	0ee7d263          	bge	a5,a4,28eec <alt_log_write+0x128>
   28e0c:	fe042423          	sw	zero,-24(s0)
   28e10:	0300006f          	j	28e40 <alt_log_write+0x7c>
   28e14:	fe842783          	lw	a5,-24(s0)
   28e18:	fdc42703          	lw	a4,-36(s0)
   28e1c:	00f70733          	add	a4,a4,a5
   28e20:	fe842683          	lw	a3,-24(s0)
   28e24:	99c18793          	add	a5,gp,-1636 # 2a558 <alt_log_write_buf>
   28e28:	00f687b3          	add	a5,a3,a5
   28e2c:	00074703          	lbu	a4,0(a4)
   28e30:	00e78023          	sb	a4,0(a5)
   28e34:	fe842783          	lw	a5,-24(s0)
   28e38:	00178793          	add	a5,a5,1
   28e3c:	fef42423          	sw	a5,-24(s0)
   28e40:	fe842703          	lw	a4,-24(s0)
   28e44:	fec42783          	lw	a5,-20(s0)
   28e48:	fcf746e3          	blt	a4,a5,28e14 <alt_log_write+0x50>
   28e4c:	fec42783          	lw	a5,-20(s0)
   28e50:	fff78793          	add	a5,a5,-1
   28e54:	99c18713          	add	a4,gp,-1636 # 2a558 <alt_log_write_buf>
   28e58:	00f707b3          	add	a5,a4,a5
   28e5c:	00a00713          	li	a4,10
   28e60:	00e78023          	sb	a4,0(a5)
   28e64:	99c18713          	add	a4,gp,-1636 # 2a558 <alt_log_write_buf>
   28e68:	fec42783          	lw	a5,-20(s0)
   28e6c:	00f707b3          	add	a5,a4,a5
   28e70:	00d00713          	li	a4,13
   28e74:	00e78023          	sb	a4,0(a5)
   28e78:	fec42783          	lw	a5,-20(s0)
   28e7c:	00178793          	add	a5,a5,1
   28e80:	99c18713          	add	a4,gp,-1636 # 2a558 <alt_log_write_buf>
   28e84:	00f707b3          	add	a5,a4,a5
   28e88:	00078023          	sb	zero,0(a5)
   28e8c:	fe042223          	sw	zero,-28(s0)
   28e90:	03c0006f          	j	28ecc <alt_log_write+0x108>
   28e94:	99c18713          	add	a4,gp,-1636 # 2a558 <alt_log_write_buf>
   28e98:	fe442783          	lw	a5,-28(s0)
   28e9c:	00f707b3          	add	a5,a4,a5
   28ea0:	0007c703          	lbu	a4,0(a5)
   28ea4:	00400793          	li	a5,4
   28ea8:	00f71c63          	bne	a4,a5,28ec0 <alt_log_write+0xfc>
   28eac:	99c18713          	add	a4,gp,-1636 # 2a558 <alt_log_write_buf>
   28eb0:	fe442783          	lw	a5,-28(s0)
   28eb4:	00f707b3          	add	a5,a4,a5
   28eb8:	04400713          	li	a4,68
   28ebc:	00e78023          	sb	a4,0(a5)
   28ec0:	fe442783          	lw	a5,-28(s0)
   28ec4:	00178793          	add	a5,a5,1
   28ec8:	fef42223          	sw	a5,-28(s0)
   28ecc:	fe442703          	lw	a4,-28(s0)
   28ed0:	fec42783          	lw	a5,-20(s0)
   28ed4:	fcf740e3          	blt	a4,a5,28e94 <alt_log_write+0xd0>
   28ed8:	99c18593          	add	a1,gp,-1636 # 2a558 <alt_log_write_buf>
   28edc:	0002a7b7          	lui	a5,0x2a
   28ee0:	16478513          	add	a0,a5,356 # 2a164 <__flash_rodata_start+0x130>
   28ee4:	c59ff0ef          	jal	28b3c <alt_log_printf_proc>
   28ee8:	0080006f          	j	28ef0 <alt_log_write+0x12c>
   28eec:	00000013          	nop
   28ef0:	02c12083          	lw	ra,44(sp)
   28ef4:	02812403          	lw	s0,40(sp)
   28ef8:	03010113          	add	sp,sp,48
   28efc:	00008067          	ret

00028f00 <alt_log_system_clock>:
   28f00:	ff010113          	add	sp,sp,-16
   28f04:	00112623          	sw	ra,12(sp)
   28f08:	00812423          	sw	s0,8(sp)
   28f0c:	01010413          	add	s0,sp,16
   28f10:	0002a7b7          	lui	a5,0x2a
   28f14:	3c17c783          	lbu	a5,961(a5) # 2a3c1 <alt_log_sys_clk_on_flag>
   28f18:	0ff7f793          	zext.b	a5,a5
   28f1c:	02078e63          	beqz	a5,28f58 <alt_log_system_clock+0x58>
   28f20:	8e81a783          	lw	a5,-1816(gp) # 2a4a4 <alt_log_sys_clk_count>
   28f24:	00178713          	add	a4,a5,1
   28f28:	8ee1a423          	sw	a4,-1816(gp) # 2a4a4 <alt_log_sys_clk_count>
   28f2c:	8fc1a783          	lw	a5,-1796(gp) # 2a4b8 <_alt_tick_rate>
   28f30:	8e81a703          	lw	a4,-1816(gp) # 2a4a4 <alt_log_sys_clk_count>
   28f34:	02e7f263          	bgeu	a5,a4,28f58 <alt_log_system_clock+0x58>
   28f38:	8e01a423          	sw	zero,-1816(gp) # 2a4a4 <alt_log_sys_clk_count>
   28f3c:	8ec1a783          	lw	a5,-1812(gp) # 2a4a8 <alt_system_clock_in_sec>
   28f40:	00178693          	add	a3,a5,1
   28f44:	8ed1a623          	sw	a3,-1812(gp) # 2a4a8 <alt_system_clock_in_sec>
   28f48:	00078593          	mv	a1,a5
   28f4c:	0002a7b7          	lui	a5,0x2a
   28f50:	17478513          	add	a0,a5,372 # 2a174 <__flash_rodata_start+0x140>
   28f54:	be9ff0ef          	jal	28b3c <alt_log_printf_proc>
   28f58:	00000013          	nop
   28f5c:	00c12083          	lw	ra,12(sp)
   28f60:	00812403          	lw	s0,8(sp)
   28f64:	01010113          	add	sp,sp,16
   28f68:	00008067          	ret

00028f6c <alt_main>:
   28f6c:	ff010113          	add	sp,sp,-16
   28f70:	00112623          	sw	ra,12(sp)
   28f74:	00812423          	sw	s0,8(sp)
   28f78:	01010413          	add	s0,sp,16
   28f7c:	0002a7b7          	lui	a5,0x2a
   28f80:	3bc7a703          	lw	a4,956(a5) # 2a3bc <alt_log_boot_on_flag>
   28f84:	00100793          	li	a5,1
   28f88:	00f71863          	bne	a4,a5,28f98 <alt_main+0x2c>
   28f8c:	0002a7b7          	lui	a5,0x2a
   28f90:	18c78513          	add	a0,a5,396 # 2a18c <__flash_rodata_start+0x158>
   28f94:	ba9ff0ef          	jal	28b3c <alt_log_printf_proc>
   28f98:	00000513          	li	a0,0
   28f9c:	31c000ef          	jal	292b8 <alt_irq_init>
   28fa0:	0002a7b7          	lui	a5,0x2a
   28fa4:	3bc7a703          	lw	a4,956(a5) # 2a3bc <alt_log_boot_on_flag>
   28fa8:	00100793          	li	a5,1
   28fac:	00f71863          	bne	a4,a5,28fbc <alt_main+0x50>
   28fb0:	0002a7b7          	lui	a5,0x2a
   28fb4:	1c478513          	add	a0,a5,452 # 2a1c4 <__flash_rodata_start+0x190>
   28fb8:	b85ff0ef          	jal	28b3c <alt_log_printf_proc>
   28fbc:	00000013          	nop
   28fc0:	0002a7b7          	lui	a5,0x2a
   28fc4:	3bc7a703          	lw	a4,956(a5) # 2a3bc <alt_log_boot_on_flag>
   28fc8:	00100793          	li	a5,1
   28fcc:	00f71863          	bne	a4,a5,28fdc <alt_main+0x70>
   28fd0:	0002a7b7          	lui	a5,0x2a
   28fd4:	1fc78513          	add	a0,a5,508 # 2a1fc <__flash_rodata_start+0x1c8>
   28fd8:	b65ff0ef          	jal	28b3c <alt_log_printf_proc>
   28fdc:	0002a7b7          	lui	a5,0x2a
   28fe0:	3bc7a703          	lw	a4,956(a5) # 2a3bc <alt_log_boot_on_flag>
   28fe4:	00100793          	li	a5,1
   28fe8:	00f71863          	bne	a4,a5,28ff8 <alt_main+0x8c>
   28fec:	0002a7b7          	lui	a5,0x2a
   28ff0:	23478513          	add	a0,a5,564 # 2a234 <__flash_rodata_start+0x200>
   28ff4:	b49ff0ef          	jal	28b3c <alt_log_printf_proc>
   28ff8:	2f8000ef          	jal	292f0 <alt_sys_init>
   28ffc:	0002a7b7          	lui	a5,0x2a
   29000:	3bc7a703          	lw	a4,956(a5) # 2a3bc <alt_log_boot_on_flag>
   29004:	00100793          	li	a5,1
   29008:	00f71863          	bne	a4,a5,29018 <alt_main+0xac>
   2900c:	0002a7b7          	lui	a5,0x2a
   29010:	25c78513          	add	a0,a5,604 # 2a25c <__flash_rodata_start+0x228>
   29014:	b29ff0ef          	jal	28b3c <alt_log_printf_proc>
   29018:	0002a7b7          	lui	a5,0x2a
   2901c:	3bc7a703          	lw	a4,956(a5) # 2a3bc <alt_log_boot_on_flag>
   29020:	00100793          	li	a5,1
   29024:	00f71863          	bne	a4,a5,29034 <alt_main+0xc8>
   29028:	0002a7b7          	lui	a5,0x2a
   2902c:	28078513          	add	a0,a5,640 # 2a280 <__flash_rodata_start+0x24c>
   29030:	b0dff0ef          	jal	28b3c <alt_log_printf_proc>
   29034:	8f01a703          	lw	a4,-1808(gp) # 2a4ac <alt_argc>
   29038:	8f41a683          	lw	a3,-1804(gp) # 2a4b0 <alt_argv>
   2903c:	8f81a783          	lw	a5,-1800(gp) # 2a4b4 <alt_envp>
   29040:	00078613          	mv	a2,a5
   29044:	00068593          	mv	a1,a3
   29048:	00070513          	mv	a0,a4
   2904c:	ac4ff0ef          	jal	28310 <main>
   29050:	0002a7b7          	lui	a5,0x2a
   29054:	3bc7a703          	lw	a4,956(a5) # 2a3bc <alt_log_boot_on_flag>
   29058:	00100793          	li	a5,1
   2905c:	00f71863          	bne	a4,a5,2906c <alt_main+0x100>
   29060:	0002a7b7          	lui	a5,0x2a
   29064:	2a078513          	add	a0,a5,672 # 2a2a0 <__flash_rodata_start+0x26c>
   29068:	ad5ff0ef          	jal	28b3c <alt_log_printf_proc>
   2906c:	00000013          	nop
   29070:	00c12083          	lw	ra,12(sp)
   29074:	00812403          	lw	s0,8(sp)
   29078:	01010113          	add	sp,sp,16
   2907c:	00008067          	ret

00029080 <alt_putstr>:
   29080:	fe010113          	add	sp,sp,-32
   29084:	00112e23          	sw	ra,28(sp)
   29088:	00812c23          	sw	s0,24(sp)
   2908c:	02010413          	add	s0,sp,32
   29090:	fea42623          	sw	a0,-20(s0)
   29094:	fec42503          	lw	a0,-20(s0)
   29098:	00d000ef          	jal	298a4 <strlen>
   2909c:	00050793          	mv	a5,a0
   290a0:	00000693          	li	a3,0
   290a4:	00078613          	mv	a2,a5
   290a8:	fec42583          	lw	a1,-20(s0)
   290ac:	81418513          	add	a0,gp,-2028 # 2a3d0 <DEBUG_JTAG>
   290b0:	2a4000ef          	jal	29354 <altera_avalon_jtag_uart_write>
   290b4:	00050793          	mv	a5,a0
   290b8:	00078513          	mv	a0,a5
   290bc:	01c12083          	lw	ra,28(sp)
   290c0:	01812403          	lw	s0,24(sp)
   290c4:	02010113          	add	sp,sp,32
   290c8:	00008067          	ret

000290cc <alt_alarm_stop>:
   290cc:	fd010113          	add	sp,sp,-48
   290d0:	02812623          	sw	s0,44(sp)
   290d4:	03010413          	add	s0,sp,48
   290d8:	fca42e23          	sw	a0,-36(s0)
   290dc:	00800793          	li	a5,8
   290e0:	3007b7f3          	csrrc	a5,mstatus,a5
   290e4:	fef42623          	sw	a5,-20(s0)
   290e8:	fec42783          	lw	a5,-20(s0)
   290ec:	fef42023          	sw	a5,-32(s0)
   290f0:	fdc42783          	lw	a5,-36(s0)
   290f4:	fef42423          	sw	a5,-24(s0)
   290f8:	fe842783          	lw	a5,-24(s0)
   290fc:	0007a783          	lw	a5,0(a5)
   29100:	fe842703          	lw	a4,-24(s0)
   29104:	00472703          	lw	a4,4(a4)
   29108:	00e7a223          	sw	a4,4(a5)
   2910c:	fe842783          	lw	a5,-24(s0)
   29110:	0047a783          	lw	a5,4(a5)
   29114:	fe842703          	lw	a4,-24(s0)
   29118:	00072703          	lw	a4,0(a4)
   2911c:	00e7a023          	sw	a4,0(a5)
   29120:	fe842783          	lw	a5,-24(s0)
   29124:	fe842703          	lw	a4,-24(s0)
   29128:	00e7a223          	sw	a4,4(a5)
   2912c:	fe842783          	lw	a5,-24(s0)
   29130:	fe842703          	lw	a4,-24(s0)
   29134:	00e7a023          	sw	a4,0(a5)
   29138:	00000013          	nop
   2913c:	fe042783          	lw	a5,-32(s0)
   29140:	fef42223          	sw	a5,-28(s0)
   29144:	fe442783          	lw	a5,-28(s0)
   29148:	0087f793          	and	a5,a5,8
   2914c:	3007a073          	csrs	mstatus,a5
   29150:	00000013          	nop
   29154:	00000013          	nop
   29158:	02c12403          	lw	s0,44(sp)
   2915c:	03010113          	add	sp,sp,48
   29160:	00008067          	ret

00029164 <alt_tick>:
   29164:	fe010113          	add	sp,sp,-32
   29168:	00112e23          	sw	ra,28(sp)
   2916c:	00812c23          	sw	s0,24(sp)
   29170:	01212a23          	sw	s2,20(sp)
   29174:	01312823          	sw	s3,16(sp)
   29178:	02010413          	add	s0,sp,32
   2917c:	0002a7b7          	lui	a5,0x2a
   29180:	3c878793          	add	a5,a5,968 # 2a3c8 <alt_alarm_list>
   29184:	0007a783          	lw	a5,0(a5)
   29188:	fef42223          	sw	a5,-28(s0)
   2918c:	9041a703          	lw	a4,-1788(gp) # 2a4c0 <_alt_nticks>
   29190:	9081a783          	lw	a5,-1784(gp) # 2a4c4 <_alt_nticks+0x4>
   29194:	00100513          	li	a0,1
   29198:	00000593          	li	a1,0
   2919c:	00a70633          	add	a2,a4,a0
   291a0:	00060813          	mv	a6,a2
   291a4:	00e83833          	sltu	a6,a6,a4
   291a8:	00b786b3          	add	a3,a5,a1
   291ac:	00d807b3          	add	a5,a6,a3
   291b0:	00078693          	mv	a3,a5
   291b4:	00060713          	mv	a4,a2
   291b8:	00068793          	mv	a5,a3
   291bc:	90e1a223          	sw	a4,-1788(gp) # 2a4c0 <_alt_nticks>
   291c0:	90f1a423          	sw	a5,-1784(gp) # 2a4c4 <_alt_nticks+0x4>
   291c4:	0c40006f          	j	29288 <alt_tick+0x124>
   291c8:	fe442783          	lw	a5,-28(s0)
   291cc:	0007a783          	lw	a5,0(a5)
   291d0:	fef42423          	sw	a5,-24(s0)
   291d4:	fe442783          	lw	a5,-28(s0)
   291d8:	0087a603          	lw	a2,8(a5)
   291dc:	00c7a683          	lw	a3,12(a5)
   291e0:	9041a703          	lw	a4,-1788(gp) # 2a4c0 <_alt_nticks>
   291e4:	9081a783          	lw	a5,-1784(gp) # 2a4c4 <_alt_nticks+0x4>
   291e8:	00068513          	mv	a0,a3
   291ec:	00078593          	mv	a1,a5
   291f0:	08a5e863          	bltu	a1,a0,29280 <alt_tick+0x11c>
   291f4:	00068513          	mv	a0,a3
   291f8:	00078593          	mv	a1,a5
   291fc:	00b51863          	bne	a0,a1,2920c <alt_tick+0xa8>
   29200:	00060693          	mv	a3,a2
   29204:	00070793          	mv	a5,a4
   29208:	06d7ec63          	bltu	a5,a3,29280 <alt_tick+0x11c>
   2920c:	fe442783          	lw	a5,-28(s0)
   29210:	0107a783          	lw	a5,16(a5)
   29214:	fe442703          	lw	a4,-28(s0)
   29218:	01472703          	lw	a4,20(a4)
   2921c:	00070513          	mv	a0,a4
   29220:	000780e7          	jalr	a5
   29224:	fea42623          	sw	a0,-20(s0)
   29228:	fec42783          	lw	a5,-20(s0)
   2922c:	00079863          	bnez	a5,2923c <alt_tick+0xd8>
   29230:	fe442503          	lw	a0,-28(s0)
   29234:	e99ff0ef          	jal	290cc <alt_alarm_stop>
   29238:	0480006f          	j	29280 <alt_tick+0x11c>
   2923c:	fe442783          	lw	a5,-28(s0)
   29240:	0087a703          	lw	a4,8(a5)
   29244:	00c7a783          	lw	a5,12(a5)
   29248:	fec42683          	lw	a3,-20(s0)
   2924c:	00068913          	mv	s2,a3
   29250:	00000993          	li	s3,0
   29254:	01270633          	add	a2,a4,s2
   29258:	00060593          	mv	a1,a2
   2925c:	00e5b5b3          	sltu	a1,a1,a4
   29260:	013786b3          	add	a3,a5,s3
   29264:	00d587b3          	add	a5,a1,a3
   29268:	00078693          	mv	a3,a5
   2926c:	00060713          	mv	a4,a2
   29270:	00068793          	mv	a5,a3
   29274:	fe442683          	lw	a3,-28(s0)
   29278:	00e6a423          	sw	a4,8(a3)
   2927c:	00f6a623          	sw	a5,12(a3)
   29280:	fe842783          	lw	a5,-24(s0)
   29284:	fef42223          	sw	a5,-28(s0)
   29288:	fe442703          	lw	a4,-28(s0)
   2928c:	0002a7b7          	lui	a5,0x2a
   29290:	3c878793          	add	a5,a5,968 # 2a3c8 <alt_alarm_list>
   29294:	f2f71ae3          	bne	a4,a5,291c8 <alt_tick+0x64>
   29298:	00000013          	nop
   2929c:	00000013          	nop
   292a0:	01c12083          	lw	ra,28(sp)
   292a4:	01812403          	lw	s0,24(sp)
   292a8:	01412903          	lw	s2,20(sp)
   292ac:	01012983          	lw	s3,16(sp)
   292b0:	02010113          	add	sp,sp,32
   292b4:	00008067          	ret

000292b8 <alt_irq_init>:
   292b8:	fe010113          	add	sp,sp,-32
   292bc:	00112e23          	sw	ra,28(sp)
   292c0:	00812c23          	sw	s0,24(sp)
   292c4:	02010413          	add	s0,sp,32
   292c8:	fea42623          	sw	a0,-20(s0)
   292cc:	190000ef          	jal	2945c <intel_niosv_irq_init>
   292d0:	00800793          	li	a5,8
   292d4:	3007a073          	csrs	mstatus,a5
   292d8:	00000013          	nop
   292dc:	00000013          	nop
   292e0:	01c12083          	lw	ra,28(sp)
   292e4:	01812403          	lw	s0,24(sp)
   292e8:	02010113          	add	sp,sp,32
   292ec:	00008067          	ret

000292f0 <alt_sys_init>:
   292f0:	fe010113          	add	sp,sp,-32
   292f4:	00112e23          	sw	ra,28(sp)
   292f8:	00812c23          	sw	s0,24(sp)
   292fc:	02010413          	add	s0,sp,32
   29300:	00000013          	nop
   29304:	3e800793          	li	a5,1000
   29308:	fef42623          	sw	a5,-20(s0)
   2930c:	8fc1a783          	lw	a5,-1796(gp) # 2a4b8 <_alt_tick_rate>
   29310:	00079863          	bnez	a5,29320 <alt_sys_init+0x30>
   29314:	fec42703          	lw	a4,-20(s0)
   29318:	8ee1ae23          	sw	a4,-1796(gp) # 2a4b8 <_alt_tick_rate>
   2931c:	0080006f          	j	29324 <alt_sys_init+0x34>
   29320:	00000013          	nop
   29324:	000297b7          	lui	a5,0x29
   29328:	6c078793          	add	a5,a5,1728 # 296c0 <alt_niosv_timer_sc_isr>
   2932c:	fef42423          	sw	a5,-24(s0)
   29330:	fe842703          	lw	a4,-24(s0)
   29334:	8ee1a223          	sw	a4,-1820(gp) # 2a4a0 <alt_niosv_timer_interrupt_handler>
   29338:	00000013          	nop
   2933c:	434000ef          	jal	29770 <alt_niosv_mtimecmp_interrupt_init>
   29340:	00000013          	nop
   29344:	01c12083          	lw	ra,28(sp)
   29348:	01812403          	lw	s0,24(sp)
   2934c:	02010113          	add	sp,sp,32
   29350:	00008067          	ret

00029354 <altera_avalon_jtag_uart_write>:
   29354:	fd010113          	add	sp,sp,-48
   29358:	02812623          	sw	s0,44(sp)
   2935c:	03010413          	add	s0,sp,48
   29360:	fca42e23          	sw	a0,-36(s0)
   29364:	fcb42c23          	sw	a1,-40(s0)
   29368:	fcc42a23          	sw	a2,-44(s0)
   2936c:	fcd42823          	sw	a3,-48(s0)
   29370:	fdc42783          	lw	a5,-36(s0)
   29374:	0007a783          	lw	a5,0(a5)
   29378:	fef42023          	sw	a5,-32(s0)
   2937c:	fd442783          	lw	a5,-44(s0)
   29380:	fd842703          	lw	a4,-40(s0)
   29384:	00f707b3          	add	a5,a4,a5
   29388:	fef42223          	sw	a5,-28(s0)
   2938c:	0400006f          	j	293cc <altera_avalon_jtag_uart_write+0x78>
   29390:	fe042783          	lw	a5,-32(s0)
   29394:	00478793          	add	a5,a5,4
   29398:	0007a783          	lw	a5,0(a5)
   2939c:	fef42423          	sw	a5,-24(s0)
   293a0:	fe842703          	lw	a4,-24(s0)
   293a4:	000107b7          	lui	a5,0x10
   293a8:	02f76263          	bltu	a4,a5,293cc <altera_avalon_jtag_uart_write+0x78>
   293ac:	fd842783          	lw	a5,-40(s0)
   293b0:	00178713          	add	a4,a5,1 # 10001 <__reset-0x17fff>
   293b4:	fce42c23          	sw	a4,-40(s0)
   293b8:	0007c783          	lbu	a5,0(a5)
   293bc:	fef42623          	sw	a5,-20(s0)
   293c0:	fe042783          	lw	a5,-32(s0)
   293c4:	fec42703          	lw	a4,-20(s0)
   293c8:	00e7a023          	sw	a4,0(a5)
   293cc:	fd842703          	lw	a4,-40(s0)
   293d0:	fe442783          	lw	a5,-28(s0)
   293d4:	faf76ee3          	bltu	a4,a5,29390 <altera_avalon_jtag_uart_write+0x3c>
   293d8:	fd442783          	lw	a5,-44(s0)
   293dc:	00078513          	mv	a0,a5
   293e0:	02c12403          	lw	s0,44(sp)
   293e4:	03010113          	add	sp,sp,48
   293e8:	00008067          	ret

000293ec <tx_log_str>:
        .global tx_log_str
tx_log_str:
tx_next_char:
    /* if pointer points to null, return .
     * a0 is the pointer to the str to be printed, set by ALT_LOG_PUTS */
	lb      t1, (a0)
   293ec:	00050303          	lb	t1,0(a0)
	beqz    t1, end_tx
   293f0:	02030863          	beqz	t1,29420 <end_tx>
	/* 
     * Check device transmit ready
     *    UART, ALT_LOG_PRINT_MSK == 0x40
     *    JTAG UART, ALT_LOG_PRINT_MSK == 0xFFFF0000
     */
    li      t2, ALT_LOG_PRINT_MSK
   293f4:	ffff03b7          	lui	t2,0xffff0

000293f8 <wait_tx_ready_loop>:

wait_tx_ready_loop:
    /* load base uart / jtag uart address into t0 */
    li      t0, ALT_LOG_PORT_BASE
   293f8:	000302b7          	lui	t0,0x30
   293fc:	0e028293          	add	t0,t0,224 # 300e0 <__alt_data_end+0x30e0>

    lw      t0, ALT_LOG_PRINT_REG_OFFSET(t0)
   29400:	0042a283          	lw	t0,4(t0)
    and     t0, t0, t2
   29404:	0072f2b3          	and	t0,t0,t2
    beqz    t0, wait_tx_ready_loop	
   29408:	fe0288e3          	beqz	t0,293f8 <wait_tx_ready_loop>

    /* load base uart / jtag uart address into t0 */
    li      t0, ALT_LOG_PORT_BASE
   2940c:	000302b7          	lui	t0,0x30
   29410:	0e028293          	add	t0,t0,224 # 300e0 <__alt_data_end+0x30e0>

	/* write char */
	sw      t1, ALT_LOG_PRINT_TXDATA_REG_OFFSET(t0)		
   29414:	0062a023          	sw	t1,0(t0)

	/* advance string pointer */
	addi    a0, a0, 1
   29418:	00150513          	add	a0,a0,1
	j       tx_next_char
   2941c:	fd1ff06f          	j	293ec <tx_log_str>

00029420 <end_tx>:

end_tx:	
    ret
   29420:	00008067          	ret

00029424 <alt_dcache_flush_all>:
   29424:	ff010113          	add	sp,sp,-16
   29428:	00812623          	sw	s0,12(sp)
   2942c:	01010413          	add	s0,sp,16
   29430:	00000013          	nop
   29434:	00c12403          	lw	s0,12(sp)
   29438:	01010113          	add	sp,sp,16
   2943c:	00008067          	ret

00029440 <alt_icache_flush_all>:
   29440:	ff010113          	add	sp,sp,-16
   29444:	00812623          	sw	s0,12(sp)
   29448:	01010413          	add	s0,sp,16
   2944c:	00000013          	nop
   29450:	00c12403          	lw	s0,12(sp)
   29454:	01010113          	add	sp,sp,16
   29458:	00008067          	ret

0002945c <intel_niosv_irq_init>:
   2945c:	ff010113          	add	sp,sp,-16
   29460:	00812623          	sw	s0,12(sp)
   29464:	01010413          	add	s0,sp,16
   29468:	fff00793          	li	a5,-1
   2946c:	3047b073          	csrc	mie,a5
   29470:	00000013          	nop
   29474:	00c12403          	lw	s0,12(sp)
   29478:	01010113          	add	sp,sp,16
   2947c:	00008067          	ret

00029480 <alt_timestamp_start>:
   29480:	ff010113          	add	sp,sp,-16
   29484:	00112623          	sw	ra,12(sp)
   29488:	00812423          	sw	s0,8(sp)
   2948c:	01010413          	add	s0,sp,16
   29490:	0a4000ef          	jal	29534 <alt_niosv_mtime_get>
   29494:	00050713          	mv	a4,a0
   29498:	00058793          	mv	a5,a1
   2949c:	90e1a623          	sw	a4,-1780(gp) # 2a4c8 <alt_niosv_timestamp_offset>
   294a0:	90f1a823          	sw	a5,-1776(gp) # 2a4cc <alt_niosv_timestamp_offset+0x4>
   294a4:	00000793          	li	a5,0
   294a8:	00078513          	mv	a0,a5
   294ac:	00c12083          	lw	ra,12(sp)
   294b0:	00812403          	lw	s0,8(sp)
   294b4:	01010113          	add	sp,sp,16
   294b8:	00008067          	ret

000294bc <alt_timestamp>:
   294bc:	ff010113          	add	sp,sp,-16
   294c0:	00112623          	sw	ra,12(sp)
   294c4:	00812423          	sw	s0,8(sp)
   294c8:	01010413          	add	s0,sp,16
   294cc:	068000ef          	jal	29534 <alt_niosv_mtime_get>
   294d0:	00050613          	mv	a2,a0
   294d4:	00058693          	mv	a3,a1
   294d8:	90c1a503          	lw	a0,-1780(gp) # 2a4c8 <alt_niosv_timestamp_offset>
   294dc:	9101a583          	lw	a1,-1776(gp) # 2a4cc <alt_niosv_timestamp_offset+0x4>
   294e0:	40a60733          	sub	a4,a2,a0
   294e4:	00070813          	mv	a6,a4
   294e8:	01063833          	sltu	a6,a2,a6
   294ec:	40b687b3          	sub	a5,a3,a1
   294f0:	410786b3          	sub	a3,a5,a6
   294f4:	00068793          	mv	a5,a3
   294f8:	00070513          	mv	a0,a4
   294fc:	00078593          	mv	a1,a5
   29500:	00c12083          	lw	ra,12(sp)
   29504:	00812403          	lw	s0,8(sp)
   29508:	01010113          	add	sp,sp,16
   2950c:	00008067          	ret

00029510 <alt_timestamp_freq>:
   29510:	ff010113          	add	sp,sp,-16
   29514:	00812623          	sw	s0,12(sp)
   29518:	01010413          	add	s0,sp,16
   2951c:	05f5e7b7          	lui	a5,0x5f5e
   29520:	10078793          	add	a5,a5,256 # 5f5e100 <__alt_data_end+0x5f31100>
   29524:	00078513          	mv	a0,a5
   29528:	00c12403          	lw	s0,12(sp)
   2952c:	01010113          	add	sp,sp,16
   29530:	00008067          	ret

00029534 <alt_niosv_mtime_get>:
   29534:	fe010113          	add	sp,sp,-32
   29538:	00812e23          	sw	s0,28(sp)
   2953c:	02010413          	add	s0,sp,32
   29540:	00030337          	lui	t1,0x30
   29544:	08430313          	add	t1,t1,132 # 30084 <__alt_data_end+0x3084>
   29548:	00032303          	lw	t1,0(t1)
   2954c:	fe642423          	sw	t1,-24(s0)
   29550:	00030337          	lui	t1,0x30
   29554:	08030313          	add	t1,t1,128 # 30080 <__alt_data_end+0x3080>
   29558:	00032303          	lw	t1,0(t1)
   2955c:	fe642623          	sw	t1,-20(s0)
   29560:	00030337          	lui	t1,0x30
   29564:	08430313          	add	t1,t1,132 # 30084 <__alt_data_end+0x3084>
   29568:	00032303          	lw	t1,0(t1)
   2956c:	fe842e03          	lw	t3,-24(s0)
   29570:	fc6e18e3          	bne	t3,t1,29540 <alt_niosv_mtime_get+0xc>
   29574:	fe842303          	lw	t1,-24(s0)
   29578:	00030813          	mv	a6,t1
   2957c:	00000893          	li	a7,0
   29580:	00081793          	sll	a5,a6,0x0
   29584:	00000713          	li	a4,0
   29588:	fec42803          	lw	a6,-20(s0)
   2958c:	00080613          	mv	a2,a6
   29590:	00000693          	li	a3,0
   29594:	00c76533          	or	a0,a4,a2
   29598:	00d7e5b3          	or	a1,a5,a3
   2959c:	00050713          	mv	a4,a0
   295a0:	00058793          	mv	a5,a1
   295a4:	00070513          	mv	a0,a4
   295a8:	00078593          	mv	a1,a5
   295ac:	01c12403          	lw	s0,28(sp)
   295b0:	02010113          	add	sp,sp,32
   295b4:	00008067          	ret

000295b8 <alt_niosv_mtimecmp_set>:
   295b8:	fd010113          	add	sp,sp,-48
   295bc:	02812623          	sw	s0,44(sp)
   295c0:	03010413          	add	s0,sp,48
   295c4:	fca42c23          	sw	a0,-40(s0)
   295c8:	fcb42e23          	sw	a1,-36(s0)
   295cc:	f14026f3          	csrr	a3,mhartid
   295d0:	fed42623          	sw	a3,-20(s0)
   295d4:	fec42603          	lw	a2,-20(s0)
   295d8:	000066b7          	lui	a3,0x6
   295dc:	01168693          	add	a3,a3,17 # 6011 <__reset-0x21fef>
   295e0:	00d606b3          	add	a3,a2,a3
   295e4:	00369693          	sll	a3,a3,0x3
   295e8:	fed42423          	sw	a3,-24(s0)
   295ec:	fe842683          	lw	a3,-24(s0)
   295f0:	00468693          	add	a3,a3,4
   295f4:	fff00613          	li	a2,-1
   295f8:	00c6a023          	sw	a2,0(a3)
   295fc:	fd842603          	lw	a2,-40(s0)
   29600:	fe842683          	lw	a3,-24(s0)
   29604:	00c6a023          	sw	a2,0(a3)
   29608:	fdc42683          	lw	a3,-36(s0)
   2960c:	0006d713          	srl	a4,a3,0x0
   29610:	00000793          	li	a5,0
   29614:	fe842683          	lw	a3,-24(s0)
   29618:	00468693          	add	a3,a3,4
   2961c:	00070793          	mv	a5,a4
   29620:	00f6a023          	sw	a5,0(a3)
   29624:	00000013          	nop
   29628:	02c12403          	lw	s0,44(sp)
   2962c:	03010113          	add	sp,sp,48
   29630:	00008067          	ret

00029634 <alt_niosv_mtimecmp_get>:
   29634:	fe010113          	add	sp,sp,-32
   29638:	00812e23          	sw	s0,28(sp)
   2963c:	02010413          	add	s0,sp,32
   29640:	f1402373          	csrr	t1,mhartid
   29644:	fe642623          	sw	t1,-20(s0)
   29648:	fec42e03          	lw	t3,-20(s0)
   2964c:	00006337          	lui	t1,0x6
   29650:	01130313          	add	t1,t1,17 # 6011 <__reset-0x21fef>
   29654:	006e0333          	add	t1,t3,t1
   29658:	00331313          	sll	t1,t1,0x3
   2965c:	fe642023          	sw	t1,-32(s0)
   29660:	fe042303          	lw	t1,-32(s0)
   29664:	00032303          	lw	t1,0(t1)
   29668:	fe642223          	sw	t1,-28(s0)
   2966c:	fe042303          	lw	t1,-32(s0)
   29670:	00430313          	add	t1,t1,4
   29674:	00032303          	lw	t1,0(t1)
   29678:	fe642423          	sw	t1,-24(s0)
   2967c:	fe842303          	lw	t1,-24(s0)
   29680:	00030813          	mv	a6,t1
   29684:	00000893          	li	a7,0
   29688:	00081793          	sll	a5,a6,0x0
   2968c:	00000713          	li	a4,0
   29690:	fe442803          	lw	a6,-28(s0)
   29694:	00080613          	mv	a2,a6
   29698:	00000693          	li	a3,0
   2969c:	00c76533          	or	a0,a4,a2
   296a0:	00d7e5b3          	or	a1,a5,a3
   296a4:	00050713          	mv	a4,a0
   296a8:	00058793          	mv	a5,a1
   296ac:	00070513          	mv	a0,a4
   296b0:	00078593          	mv	a1,a5
   296b4:	01c12403          	lw	s0,28(sp)
   296b8:	02010113          	add	sp,sp,32
   296bc:	00008067          	ret

000296c0 <alt_niosv_timer_sc_isr>:
   296c0:	fc010113          	add	sp,sp,-64
   296c4:	02112e23          	sw	ra,60(sp)
   296c8:	02812c23          	sw	s0,56(sp)
   296cc:	04010413          	add	s0,sp,64
   296d0:	fca42623          	sw	a0,-52(s0)
   296d4:	fcb42423          	sw	a1,-56(s0)
   296d8:	fcc42223          	sw	a2,-60(s0)
   296dc:	e59ff0ef          	jal	29534 <alt_niosv_mtime_get>
   296e0:	fea42423          	sw	a0,-24(s0)
   296e4:	feb42623          	sw	a1,-20(s0)
   296e8:	fe842703          	lw	a4,-24(s0)
   296ec:	fec42783          	lw	a5,-20(s0)
   296f0:	00018537          	lui	a0,0x18
   296f4:	6a050513          	add	a0,a0,1696 # 186a0 <__reset-0xf960>
   296f8:	00000593          	li	a1,0
   296fc:	00a70633          	add	a2,a4,a0
   29700:	00060813          	mv	a6,a2
   29704:	00e83833          	sltu	a6,a6,a4
   29708:	00b786b3          	add	a3,a5,a1
   2970c:	00d807b3          	add	a5,a6,a3
   29710:	00078693          	mv	a3,a5
   29714:	00060713          	mv	a4,a2
   29718:	00068793          	mv	a5,a3
   2971c:	00070513          	mv	a0,a4
   29720:	00078593          	mv	a1,a5
   29724:	e95ff0ef          	jal	295b8 <alt_niosv_mtimecmp_set>
   29728:	fd8ff0ef          	jal	28f00 <alt_log_system_clock>
   2972c:	00800793          	li	a5,8
   29730:	3007b7f3          	csrrc	a5,mstatus,a5
   29734:	fef42223          	sw	a5,-28(s0)
   29738:	fe442783          	lw	a5,-28(s0)
   2973c:	fcf42e23          	sw	a5,-36(s0)
   29740:	a25ff0ef          	jal	29164 <alt_tick>
   29744:	fdc42783          	lw	a5,-36(s0)
   29748:	fef42023          	sw	a5,-32(s0)
   2974c:	fe042783          	lw	a5,-32(s0)
   29750:	0087f793          	and	a5,a5,8
   29754:	3007a073          	csrs	mstatus,a5
   29758:	00000013          	nop
   2975c:	00000013          	nop
   29760:	03c12083          	lw	ra,60(sp)
   29764:	03812403          	lw	s0,56(sp)
   29768:	04010113          	add	sp,sp,64
   2976c:	00008067          	ret

00029770 <alt_niosv_mtimecmp_interrupt_init>:
   29770:	fe010113          	add	sp,sp,-32
   29774:	00112e23          	sw	ra,28(sp)
   29778:	00812c23          	sw	s0,24(sp)
   2977c:	02010413          	add	s0,sp,32
   29780:	db5ff0ef          	jal	29534 <alt_niosv_mtime_get>
   29784:	fea42423          	sw	a0,-24(s0)
   29788:	feb42623          	sw	a1,-20(s0)
   2978c:	fe842703          	lw	a4,-24(s0)
   29790:	fec42783          	lw	a5,-20(s0)
   29794:	00018537          	lui	a0,0x18
   29798:	6a050513          	add	a0,a0,1696 # 186a0 <__reset-0xf960>
   2979c:	00000593          	li	a1,0
   297a0:	00a70633          	add	a2,a4,a0
   297a4:	00060813          	mv	a6,a2
   297a8:	00e83833          	sltu	a6,a6,a4
   297ac:	00b786b3          	add	a3,a5,a1
   297b0:	00d807b3          	add	a5,a6,a3
   297b4:	00078693          	mv	a3,a5
   297b8:	00060713          	mv	a4,a2
   297bc:	00068793          	mv	a5,a3
   297c0:	00070513          	mv	a0,a4
   297c4:	00078593          	mv	a1,a5
   297c8:	df1ff0ef          	jal	295b8 <alt_niosv_mtimecmp_set>
   297cc:	08000793          	li	a5,128
   297d0:	3047a073          	csrs	mie,a5
   297d4:	00000013          	nop
   297d8:	00000013          	nop
   297dc:	01c12083          	lw	ra,28(sp)
   297e0:	01812403          	lw	s0,24(sp)
   297e4:	02010113          	add	sp,sp,32
   297e8:	00008067          	ret

000297ec <__stack_chk_init>:
   297ec:	91418513          	add	a0,gp,-1772 # 2a4d0 <__stack_chk_guard>
   297f0:	00052783          	lw	a5,0(a0)
   297f4:	02079263          	bnez	a5,29818 <__stack_chk_init+0x2c>
   297f8:	00000793          	li	a5,0
   297fc:	00078863          	beqz	a5,2980c <__stack_chk_init+0x20>
   29800:	00400593          	li	a1,4
   29804:	00000317          	auipc	t1,0x0
   29808:	00000067          	jr	zero # 0 <__reset-0x28000>
   2980c:	ff0a07b7          	lui	a5,0xff0a0
   29810:	00f52023          	sw	a5,0(a0)
   29814:	00008067          	ret
   29818:	00008067          	ret

0002981c <__stack_chk_fail_weak>:
   2981c:	158002ef          	jal	t0,29974 <__riscv_save_0>
   29820:	00001517          	auipc	a0,0x1
   29824:	ab450513          	add	a0,a0,-1356 # 2a2d4 <__flash_rodata_start+0x2a0>
   29828:	014000ef          	jal	2983c <puts>
   2982c:	00600513          	li	a0,6
   29830:	090000ef          	jal	298c0 <raise>
   29834:	07f00513          	li	a0,127
   29838:	fccfe0ef          	jal	28004 <_exit>

0002983c <puts>:
   2983c:	138002ef          	jal	t0,29974 <__riscv_save_0>
   29840:	00001597          	auipc	a1,0x1
   29844:	ac05a583          	lw	a1,-1344(a1) # 2a300 <stdout>
   29848:	0045c783          	lbu	a5,4(a1)
   2984c:	ff010113          	add	sp,sp,-16
   29850:	00050413          	mv	s0,a0
   29854:	0027f793          	and	a5,a5,2
   29858:	00000493          	li	s1,0
   2985c:	02079463          	bnez	a5,29884 <puts+0x48>
   29860:	fff00493          	li	s1,-1
   29864:	00048513          	mv	a0,s1
   29868:	01010113          	add	sp,sp,16
   2986c:	1500006f          	j	299bc <__riscv_restore_0>
   29870:	00b12623          	sw	a1,12(sp)
   29874:	000780e7          	jalr	a5 # ff0a0000 <__alt_data_end+0xff073000>
   29878:	00c12583          	lw	a1,12(sp)
   2987c:	00055463          	bgez	a0,29884 <puts+0x48>
   29880:	fff00493          	li	s1,-1
   29884:	00044503          	lbu	a0,0(s0)
   29888:	00140413          	add	s0,s0,1
   2988c:	0085a783          	lw	a5,8(a1)
   29890:	fe0510e3          	bnez	a0,29870 <puts+0x34>
   29894:	00a00513          	li	a0,10
   29898:	000780e7          	jalr	a5
   2989c:	fc0554e3          	bgez	a0,29864 <puts+0x28>
   298a0:	fc1ff06f          	j	29860 <puts+0x24>

000298a4 <strlen>:
   298a4:	00050793          	mv	a5,a0
   298a8:	0007c703          	lbu	a4,0(a5)
   298ac:	00178793          	add	a5,a5,1
   298b0:	fe071ce3          	bnez	a4,298a8 <strlen+0x4>
   298b4:	40a78533          	sub	a0,a5,a0
   298b8:	fff50513          	add	a0,a0,-1
   298bc:	00008067          	ret

000298c0 <raise>:
   298c0:	01f00713          	li	a4,31
   298c4:	00a77a63          	bgeu	a4,a0,298d8 <raise+0x18>
   298c8:	01600793          	li	a5,22
   298cc:	90f1ac23          	sw	a5,-1768(gp) # 2a4d4 <errno>
   298d0:	fff00513          	li	a0,-1
   298d4:	00008067          	ret
   298d8:	00251693          	sll	a3,a0,0x2
   298dc:	9cc18713          	add	a4,gp,-1588 # 2a588 <_sig_func>
   298e0:	00d70733          	add	a4,a4,a3
   298e4:	00072683          	lw	a3,0(a4)
   298e8:	00100613          	li	a2,1
   298ec:	02c68263          	beq	a3,a2,29910 <raise+0x50>
   298f0:	084002ef          	jal	t0,29974 <__riscv_save_0>
   298f4:	00069663          	bnez	a3,29900 <raise+0x40>
   298f8:	08050513          	add	a0,a0,128
   298fc:	f08fe0ef          	jal	28004 <_exit>
   29900:	00072023          	sw	zero,0(a4)
   29904:	000680e7          	jalr	a3
   29908:	00000513          	li	a0,0
   2990c:	0b00006f          	j	299bc <__riscv_restore_0>
   29910:	00000513          	li	a0,0
   29914:	00008067          	ret

00029918 <__riscv_save_12>:
   29918:	fc010113          	add	sp,sp,-64
   2991c:	00000313          	li	t1,0
   29920:	01b12623          	sw	s11,12(sp)
   29924:	00c0006f          	j	29930 <__riscv_save_10+0x8>

00029928 <__riscv_save_10>:
   29928:	fc010113          	add	sp,sp,-64
   2992c:	ff000313          	li	t1,-16
   29930:	01a12823          	sw	s10,16(sp)
   29934:	01912a23          	sw	s9,20(sp)
   29938:	01812c23          	sw	s8,24(sp)
   2993c:	01712e23          	sw	s7,28(sp)
   29940:	00c0006f          	j	2994c <__riscv_save_4+0x8>

00029944 <__riscv_save_4>:
   29944:	fc010113          	add	sp,sp,-64
   29948:	fe000313          	li	t1,-32
   2994c:	03612023          	sw	s6,32(sp)
   29950:	03512223          	sw	s5,36(sp)
   29954:	03412423          	sw	s4,40(sp)
   29958:	03312623          	sw	s3,44(sp)
   2995c:	03212823          	sw	s2,48(sp)
   29960:	02912a23          	sw	s1,52(sp)
   29964:	02812c23          	sw	s0,56(sp)
   29968:	02112e23          	sw	ra,60(sp)
   2996c:	40610133          	sub	sp,sp,t1
   29970:	00028067          	jr	t0

00029974 <__riscv_save_0>:
   29974:	ff010113          	add	sp,sp,-16
   29978:	01212023          	sw	s2,0(sp)
   2997c:	00912223          	sw	s1,4(sp)
   29980:	00812423          	sw	s0,8(sp)
   29984:	00112623          	sw	ra,12(sp)
   29988:	00028067          	jr	t0

0002998c <__riscv_restore_12>:
   2998c:	00c12d83          	lw	s11,12(sp)
   29990:	01010113          	add	sp,sp,16

00029994 <__riscv_restore_10>:
   29994:	00012d03          	lw	s10,0(sp)
   29998:	00412c83          	lw	s9,4(sp)
   2999c:	00812c03          	lw	s8,8(sp)
   299a0:	00c12b83          	lw	s7,12(sp)
   299a4:	01010113          	add	sp,sp,16

000299a8 <__riscv_restore_4>:
   299a8:	00012b03          	lw	s6,0(sp)
   299ac:	00412a83          	lw	s5,4(sp)
   299b0:	00812a03          	lw	s4,8(sp)
   299b4:	00c12983          	lw	s3,12(sp)
   299b8:	01010113          	add	sp,sp,16

000299bc <__riscv_restore_0>:
   299bc:	00012903          	lw	s2,0(sp)
   299c0:	00412483          	lw	s1,4(sp)
   299c4:	00812403          	lw	s0,8(sp)
   299c8:	00c12083          	lw	ra,12(sp)
   299cc:	01010113          	add	sp,sp,16
   299d0:	00008067          	ret

000299d4 <__mulsi3>:
   299d4:	00050613          	mv	a2,a0
   299d8:	00000513          	li	a0,0
   299dc:	0015f693          	and	a3,a1,1
   299e0:	00068463          	beqz	a3,299e8 <__mulsi3+0x14>
   299e4:	00c50533          	add	a0,a0,a2
   299e8:	0015d593          	srl	a1,a1,0x1
   299ec:	00161613          	sll	a2,a2,0x1
   299f0:	fe0596e3          	bnez	a1,299dc <__mulsi3+0x8>
   299f4:	00008067          	ret

000299f8 <__divsi3>:
   299f8:	06054063          	bltz	a0,29a58 <__umodsi3+0x10>
   299fc:	0605c663          	bltz	a1,29a68 <__umodsi3+0x20>

00029a00 <__hidden___udivsi3>:
   29a00:	00058613          	mv	a2,a1
   29a04:	00050593          	mv	a1,a0
   29a08:	fff00513          	li	a0,-1
   29a0c:	02060c63          	beqz	a2,29a44 <__hidden___udivsi3+0x44>
   29a10:	00100693          	li	a3,1
   29a14:	00b67a63          	bgeu	a2,a1,29a28 <__hidden___udivsi3+0x28>
   29a18:	00c05863          	blez	a2,29a28 <__hidden___udivsi3+0x28>
   29a1c:	00161613          	sll	a2,a2,0x1
   29a20:	00169693          	sll	a3,a3,0x1
   29a24:	feb66ae3          	bltu	a2,a1,29a18 <__hidden___udivsi3+0x18>
   29a28:	00000513          	li	a0,0
   29a2c:	00c5e663          	bltu	a1,a2,29a38 <__hidden___udivsi3+0x38>
   29a30:	40c585b3          	sub	a1,a1,a2
   29a34:	00d56533          	or	a0,a0,a3
   29a38:	0016d693          	srl	a3,a3,0x1
   29a3c:	00165613          	srl	a2,a2,0x1
   29a40:	fe0696e3          	bnez	a3,29a2c <__hidden___udivsi3+0x2c>
   29a44:	00008067          	ret

00029a48 <__umodsi3>:
   29a48:	00008293          	mv	t0,ra
   29a4c:	fb5ff0ef          	jal	29a00 <__hidden___udivsi3>
   29a50:	00058513          	mv	a0,a1
   29a54:	00028067          	jr	t0
   29a58:	40a00533          	neg	a0,a0
   29a5c:	00b04863          	bgtz	a1,29a6c <__umodsi3+0x24>
   29a60:	40b005b3          	neg	a1,a1
   29a64:	f9dff06f          	j	29a00 <__hidden___udivsi3>
   29a68:	40b005b3          	neg	a1,a1
   29a6c:	00008293          	mv	t0,ra
   29a70:	f91ff0ef          	jal	29a00 <__hidden___udivsi3>
   29a74:	40a00533          	neg	a0,a0
   29a78:	00028067          	jr	t0

00029a7c <__modsi3>:
   29a7c:	00008293          	mv	t0,ra
   29a80:	0005ca63          	bltz	a1,29a94 <__modsi3+0x18>
   29a84:	00054c63          	bltz	a0,29a9c <__modsi3+0x20>
   29a88:	f79ff0ef          	jal	29a00 <__hidden___udivsi3>
   29a8c:	00058513          	mv	a0,a1
   29a90:	00028067          	jr	t0
   29a94:	40b005b3          	neg	a1,a1
   29a98:	fe0558e3          	bgez	a0,29a88 <__modsi3+0xc>
   29a9c:	40a00533          	neg	a0,a0
   29aa0:	f61ff0ef          	jal	29a00 <__hidden___udivsi3>
   29aa4:	40b00533          	neg	a0,a1
   29aa8:	00028067          	jr	t0

00029aac <putc_wrapper>:
   29aac:	fe010113          	add	sp,sp,-32
   29ab0:	00112e23          	sw	ra,28(sp)
   29ab4:	00812c23          	sw	s0,24(sp)
   29ab8:	02010413          	add	s0,sp,32
   29abc:	00050793          	mv	a5,a0
   29ac0:	feb42423          	sw	a1,-24(s0)
   29ac4:	fef407a3          	sb	a5,-17(s0)
   29ac8:	fef40793          	add	a5,s0,-17
   29acc:	00100613          	li	a2,1
   29ad0:	00078593          	mv	a1,a5
   29ad4:	00100513          	li	a0,1
   29ad8:	2c4000ef          	jal	29d9c <write>
   29adc:	00050793          	mv	a5,a0
   29ae0:	00078513          	mv	a0,a5
   29ae4:	01c12083          	lw	ra,28(sp)
   29ae8:	01812403          	lw	s0,24(sp)
   29aec:	02010113          	add	sp,sp,32
   29af0:	00008067          	ret

00029af4 <getc_wrapper>:
   29af4:	fd010113          	add	sp,sp,-48
   29af8:	02112623          	sw	ra,44(sp)
   29afc:	02812423          	sw	s0,40(sp)
   29b00:	03010413          	add	s0,sp,48
   29b04:	fca42e23          	sw	a0,-36(s0)
   29b08:	9141a703          	lw	a4,-1772(gp) # 2a4d0 <__stack_chk_guard>
   29b0c:	fee42623          	sw	a4,-20(s0)
   29b10:	00000713          	li	a4,0
   29b14:	feb40793          	add	a5,s0,-21
   29b18:	00100613          	li	a2,1
   29b1c:	00078593          	mv	a1,a5
   29b20:	00000513          	li	a0,0
   29b24:	1a8000ef          	jal	29ccc <read>
   29b28:	feb44783          	lbu	a5,-21(s0)
   29b2c:	00078713          	mv	a4,a5
   29b30:	fec42683          	lw	a3,-20(s0)
   29b34:	9141a783          	lw	a5,-1772(gp) # 2a4d0 <__stack_chk_guard>
   29b38:	00f6c7b3          	xor	a5,a3,a5
   29b3c:	00000693          	li	a3,0
   29b40:	00078463          	beqz	a5,29b48 <getc_wrapper+0x54>
   29b44:	cd9ff0ef          	jal	2981c <__stack_chk_fail_weak>
   29b48:	00070513          	mv	a0,a4
   29b4c:	02c12083          	lw	ra,44(sp)
   29b50:	02812403          	lw	s0,40(sp)
   29b54:	03010113          	add	sp,sp,48
   29b58:	00008067          	ret

00029b5c <alt_open_fd>:
   29b5c:	fd010113          	add	sp,sp,-48
   29b60:	02112623          	sw	ra,44(sp)
   29b64:	02812423          	sw	s0,40(sp)
   29b68:	03010413          	add	s0,sp,48
   29b6c:	fca42e23          	sw	a0,-36(s0)
   29b70:	fcb42c23          	sw	a1,-40(s0)
   29b74:	fcc42a23          	sw	a2,-44(s0)
   29b78:	fcd42823          	sw	a3,-48(s0)
   29b7c:	fd042603          	lw	a2,-48(s0)
   29b80:	fd442583          	lw	a1,-44(s0)
   29b84:	fd842503          	lw	a0,-40(s0)
   29b88:	110000ef          	jal	29c98 <open>
   29b8c:	fea42623          	sw	a0,-20(s0)
   29b90:	fec42783          	lw	a5,-20(s0)
   29b94:	0807c263          	bltz	a5,29c18 <alt_open_fd+0xbc>
   29b98:	a4c18693          	add	a3,gp,-1460 # 2a608 <alt_fd_list>
   29b9c:	fec42703          	lw	a4,-20(s0)
   29ba0:	00070793          	mv	a5,a4
   29ba4:	00179793          	sll	a5,a5,0x1
   29ba8:	00e787b3          	add	a5,a5,a4
   29bac:	00279793          	sll	a5,a5,0x2
   29bb0:	00f687b3          	add	a5,a3,a5
   29bb4:	0007a703          	lw	a4,0(a5)
   29bb8:	fdc42783          	lw	a5,-36(s0)
   29bbc:	00e7a023          	sw	a4,0(a5)
   29bc0:	a4c18693          	add	a3,gp,-1460 # 2a608 <alt_fd_list>
   29bc4:	fec42703          	lw	a4,-20(s0)
   29bc8:	00070793          	mv	a5,a4
   29bcc:	00179793          	sll	a5,a5,0x1
   29bd0:	00e787b3          	add	a5,a5,a4
   29bd4:	00279793          	sll	a5,a5,0x2
   29bd8:	00f687b3          	add	a5,a3,a5
   29bdc:	0047a703          	lw	a4,4(a5)
   29be0:	fdc42783          	lw	a5,-36(s0)
   29be4:	00e7a223          	sw	a4,4(a5)
   29be8:	a4c18693          	add	a3,gp,-1460 # 2a608 <alt_fd_list>
   29bec:	fec42703          	lw	a4,-20(s0)
   29bf0:	00070793          	mv	a5,a4
   29bf4:	00179793          	sll	a5,a5,0x1
   29bf8:	00e787b3          	add	a5,a5,a4
   29bfc:	00279793          	sll	a5,a5,0x2
   29c00:	00f687b3          	add	a5,a3,a5
   29c04:	0087a703          	lw	a4,8(a5)
   29c08:	fdc42783          	lw	a5,-36(s0)
   29c0c:	00e7a423          	sw	a4,8(a5)
   29c10:	fec42503          	lw	a0,-20(s0)
   29c14:	11c000ef          	jal	29d30 <alt_release_fd>
   29c18:	00000013          	nop
   29c1c:	02c12083          	lw	ra,44(sp)
   29c20:	02812403          	lw	s0,40(sp)
   29c24:	03010113          	add	sp,sp,48
   29c28:	00008067          	ret

00029c2c <alt_io_redirect>:
   29c2c:	fe010113          	add	sp,sp,-32
   29c30:	00112e23          	sw	ra,28(sp)
   29c34:	00812c23          	sw	s0,24(sp)
   29c38:	02010413          	add	s0,sp,32
   29c3c:	fea42623          	sw	a0,-20(s0)
   29c40:	feb42423          	sw	a1,-24(s0)
   29c44:	fec42223          	sw	a2,-28(s0)
   29c48:	1ff00693          	li	a3,511
   29c4c:	00100613          	li	a2,1
   29c50:	fec42583          	lw	a1,-20(s0)
   29c54:	a5818513          	add	a0,gp,-1448 # 2a614 <alt_fd_list+0xc>
   29c58:	f05ff0ef          	jal	29b5c <alt_open_fd>
   29c5c:	1ff00693          	li	a3,511
   29c60:	00000613          	li	a2,0
   29c64:	fe842583          	lw	a1,-24(s0)
   29c68:	a4c18513          	add	a0,gp,-1460 # 2a608 <alt_fd_list>
   29c6c:	ef1ff0ef          	jal	29b5c <alt_open_fd>
   29c70:	1ff00693          	li	a3,511
   29c74:	00100613          	li	a2,1
   29c78:	fe442583          	lw	a1,-28(s0)
   29c7c:	a6418513          	add	a0,gp,-1436 # 2a620 <alt_fd_list+0x18>
   29c80:	eddff0ef          	jal	29b5c <alt_open_fd>
   29c84:	00000013          	nop
   29c88:	01c12083          	lw	ra,28(sp)
   29c8c:	01812403          	lw	s0,24(sp)
   29c90:	02010113          	add	sp,sp,32
   29c94:	00008067          	ret

00029c98 <open>:
   29c98:	fe010113          	add	sp,sp,-32
   29c9c:	00812e23          	sw	s0,28(sp)
   29ca0:	02010413          	add	s0,sp,32
   29ca4:	fea42623          	sw	a0,-20(s0)
   29ca8:	feb42423          	sw	a1,-24(s0)
   29cac:	fec42223          	sw	a2,-28(s0)
   29cb0:	05800713          	li	a4,88
   29cb4:	90e1ac23          	sw	a4,-1768(gp) # 2a4d4 <errno>
   29cb8:	fff00793          	li	a5,-1
   29cbc:	00078513          	mv	a0,a5
   29cc0:	01c12403          	lw	s0,28(sp)
   29cc4:	02010113          	add	sp,sp,32
   29cc8:	00008067          	ret

00029ccc <read>:
   29ccc:	fe010113          	add	sp,sp,-32
   29cd0:	00112e23          	sw	ra,28(sp)
   29cd4:	00812c23          	sw	s0,24(sp)
   29cd8:	02010413          	add	s0,sp,32
   29cdc:	fea42623          	sw	a0,-20(s0)
   29ce0:	feb42423          	sw	a1,-24(s0)
   29ce4:	fec42223          	sw	a2,-28(s0)
   29ce8:	fec42783          	lw	a5,-20(s0)
   29cec:	02079263          	bnez	a5,29d10 <read+0x44>
   29cf0:	fe442783          	lw	a5,-28(s0)
   29cf4:	00000693          	li	a3,0
   29cf8:	00078613          	mv	a2,a5
   29cfc:	fe842583          	lw	a1,-24(s0)
   29d00:	81418513          	add	a0,gp,-2028 # 2a3d0 <DEBUG_JTAG>
   29d04:	130000ef          	jal	29e34 <altera_avalon_jtag_uart_read>
   29d08:	00050793          	mv	a5,a0
   29d0c:	0100006f          	j	29d1c <read+0x50>
   29d10:	05100713          	li	a4,81
   29d14:	90e1ac23          	sw	a4,-1768(gp) # 2a4d4 <errno>
   29d18:	fff00793          	li	a5,-1
   29d1c:	00078513          	mv	a0,a5
   29d20:	01c12083          	lw	ra,28(sp)
   29d24:	01812403          	lw	s0,24(sp)
   29d28:	02010113          	add	sp,sp,32
   29d2c:	00008067          	ret

00029d30 <alt_release_fd>:
   29d30:	fe010113          	add	sp,sp,-32
   29d34:	00812e23          	sw	s0,28(sp)
   29d38:	02010413          	add	s0,sp,32
   29d3c:	fea42623          	sw	a0,-20(s0)
   29d40:	fec42703          	lw	a4,-20(s0)
   29d44:	00200793          	li	a5,2
   29d48:	04e7d263          	bge	a5,a4,29d8c <alt_release_fd+0x5c>
   29d4c:	a4c18693          	add	a3,gp,-1460 # 2a608 <alt_fd_list>
   29d50:	fec42703          	lw	a4,-20(s0)
   29d54:	00070793          	mv	a5,a4
   29d58:	00179793          	sll	a5,a5,0x1
   29d5c:	00e787b3          	add	a5,a5,a4
   29d60:	00279793          	sll	a5,a5,0x2
   29d64:	00f687b3          	add	a5,a3,a5
   29d68:	0007a423          	sw	zero,8(a5)
   29d6c:	a4c18693          	add	a3,gp,-1460 # 2a608 <alt_fd_list>
   29d70:	fec42703          	lw	a4,-20(s0)
   29d74:	00070793          	mv	a5,a4
   29d78:	00179793          	sll	a5,a5,0x1
   29d7c:	00e787b3          	add	a5,a5,a4
   29d80:	00279793          	sll	a5,a5,0x2
   29d84:	00f687b3          	add	a5,a3,a5
   29d88:	0007a023          	sw	zero,0(a5)
   29d8c:	00000013          	nop
   29d90:	01c12403          	lw	s0,28(sp)
   29d94:	02010113          	add	sp,sp,32
   29d98:	00008067          	ret

00029d9c <write>:
   29d9c:	fe010113          	add	sp,sp,-32
   29da0:	00112e23          	sw	ra,28(sp)
   29da4:	00812c23          	sw	s0,24(sp)
   29da8:	02010413          	add	s0,sp,32
   29dac:	fea42623          	sw	a0,-20(s0)
   29db0:	feb42423          	sw	a1,-24(s0)
   29db4:	fec42223          	sw	a2,-28(s0)
   29db8:	fec42703          	lw	a4,-20(s0)
   29dbc:	00100793          	li	a5,1
   29dc0:	00f70a63          	beq	a4,a5,29dd4 <write+0x38>
   29dc4:	fec42703          	lw	a4,-20(s0)
   29dc8:	00200793          	li	a5,2
   29dcc:	02f70463          	beq	a4,a5,29df4 <write+0x58>
   29dd0:	0440006f          	j	29e14 <write+0x78>
   29dd4:	fe442783          	lw	a5,-28(s0)
   29dd8:	00000693          	li	a3,0
   29ddc:	00078613          	mv	a2,a5
   29de0:	fe842583          	lw	a1,-24(s0)
   29de4:	81418513          	add	a0,gp,-2028 # 2a3d0 <DEBUG_JTAG>
   29de8:	d6cff0ef          	jal	29354 <altera_avalon_jtag_uart_write>
   29dec:	00050793          	mv	a5,a0
   29df0:	0300006f          	j	29e20 <write+0x84>
   29df4:	fe442783          	lw	a5,-28(s0)
   29df8:	00000693          	li	a3,0
   29dfc:	00078613          	mv	a2,a5
   29e00:	fe842583          	lw	a1,-24(s0)
   29e04:	81418513          	add	a0,gp,-2028 # 2a3d0 <DEBUG_JTAG>
   29e08:	d4cff0ef          	jal	29354 <altera_avalon_jtag_uart_write>
   29e0c:	00050793          	mv	a5,a0
   29e10:	0100006f          	j	29e20 <write+0x84>
   29e14:	05100713          	li	a4,81
   29e18:	90e1ac23          	sw	a4,-1768(gp) # 2a4d4 <errno>
   29e1c:	fff00793          	li	a5,-1
   29e20:	00078513          	mv	a0,a5
   29e24:	01c12083          	lw	ra,28(sp)
   29e28:	01812403          	lw	s0,24(sp)
   29e2c:	02010113          	add	sp,sp,32
   29e30:	00008067          	ret

00029e34 <altera_avalon_jtag_uart_read>:
   29e34:	fc010113          	add	sp,sp,-64
   29e38:	02812e23          	sw	s0,60(sp)
   29e3c:	04010413          	add	s0,sp,64
   29e40:	fca42623          	sw	a0,-52(s0)
   29e44:	fcb42423          	sw	a1,-56(s0)
   29e48:	fcc42223          	sw	a2,-60(s0)
   29e4c:	fcd42023          	sw	a3,-64(s0)
   29e50:	fcc42783          	lw	a5,-52(s0)
   29e54:	0007a783          	lw	a5,0(a5)
   29e58:	fef42023          	sw	a5,-32(s0)
   29e5c:	fc842783          	lw	a5,-56(s0)
   29e60:	fcf42e23          	sw	a5,-36(s0)
   29e64:	fc442783          	lw	a5,-60(s0)
   29e68:	fc842703          	lw	a4,-56(s0)
   29e6c:	00f707b3          	add	a5,a4,a5
   29e70:	fef42223          	sw	a5,-28(s0)
   29e74:	0600006f          	j	29ed4 <altera_avalon_jtag_uart_read+0xa0>
   29e78:	fe042783          	lw	a5,-32(s0)
   29e7c:	0007a783          	lw	a5,0(a5)
   29e80:	fef42423          	sw	a5,-24(s0)
   29e84:	fe842783          	lw	a5,-24(s0)
   29e88:	fef42623          	sw	a5,-20(s0)
   29e8c:	fec42703          	lw	a4,-20(s0)
   29e90:	000087b7          	lui	a5,0x8
   29e94:	00f777b3          	and	a5,a4,a5
   29e98:	02078063          	beqz	a5,29eb8 <altera_avalon_jtag_uart_read+0x84>
   29e9c:	fdc42783          	lw	a5,-36(s0)
   29ea0:	00178713          	add	a4,a5,1 # 8001 <__reset-0x1ffff>
   29ea4:	fce42e23          	sw	a4,-36(s0)
   29ea8:	fec42703          	lw	a4,-20(s0)
   29eac:	0ff77713          	zext.b	a4,a4
   29eb0:	00e78023          	sb	a4,0(a5)
   29eb4:	0200006f          	j	29ed4 <altera_avalon_jtag_uart_read+0xa0>
   29eb8:	fdc42703          	lw	a4,-36(s0)
   29ebc:	fc842783          	lw	a5,-56(s0)
   29ec0:	02f71263          	bne	a4,a5,29ee4 <altera_avalon_jtag_uart_read+0xb0>
   29ec4:	fc042703          	lw	a4,-64(s0)
   29ec8:	000047b7          	lui	a5,0x4
   29ecc:	00f777b3          	and	a5,a4,a5
   29ed0:	00079e63          	bnez	a5,29eec <altera_avalon_jtag_uart_read+0xb8>
   29ed4:	fdc42703          	lw	a4,-36(s0)
   29ed8:	fe442783          	lw	a5,-28(s0)
   29edc:	f8f76ee3          	bltu	a4,a5,29e78 <altera_avalon_jtag_uart_read+0x44>
   29ee0:	0100006f          	j	29ef0 <altera_avalon_jtag_uart_read+0xbc>
   29ee4:	00000013          	nop
   29ee8:	0080006f          	j	29ef0 <altera_avalon_jtag_uart_read+0xbc>
   29eec:	00000013          	nop
   29ef0:	fdc42703          	lw	a4,-36(s0)
   29ef4:	fc842783          	lw	a5,-56(s0)
   29ef8:	00f70a63          	beq	a4,a5,29f0c <altera_avalon_jtag_uart_read+0xd8>
   29efc:	fdc42703          	lw	a4,-36(s0)
   29f00:	fc842783          	lw	a5,-56(s0)
   29f04:	40f707b3          	sub	a5,a4,a5
   29f08:	0200006f          	j	29f28 <altera_avalon_jtag_uart_read+0xf4>
   29f0c:	fc042703          	lw	a4,-64(s0)
   29f10:	000047b7          	lui	a5,0x4
   29f14:	00f777b3          	and	a5,a4,a5
   29f18:	00078663          	beqz	a5,29f24 <altera_avalon_jtag_uart_read+0xf0>
   29f1c:	ff500793          	li	a5,-11
   29f20:	0080006f          	j	29f28 <altera_avalon_jtag_uart_read+0xf4>
   29f24:	ffb00793          	li	a5,-5
   29f28:	00078513          	mv	a0,a5
   29f2c:	03c12403          	lw	s0,60(sp)
   29f30:	04010113          	add	sp,sp,64
   29f34:	00008067          	ret
   29f38:	97ec                	.insn	2, 0x97ec
   29f3a:	0002                	.insn	2, 0x0002
   29f3c:	0010                	.insn	2, 0x0010
   29f3e:	0000                	.insn	2, 0x
   29f40:	0000                	.insn	2, 0x
   29f42:	0000                	.insn	2, 0x
   29f44:	00527a03          	.insn	4, 0x00527a03
   29f48:	7c01                	.insn	2, 0x7c01
   29f4a:	0105                	.insn	2, 0x0105
   29f4c:	00020d1b          	.insn	4, 0x00020d1b
   29f50:	0048                	.insn	2, 0x0048
   29f52:	0000                	.insn	2, 0x
   29f54:	0018                	.insn	2, 0x0018
   29f56:	0000                	.insn	2, 0x
   29f58:	f9c0                	.insn	2, 0xf9c0
   29f5a:	ffff                	.insn	2, 0xffff
   29f5c:	005c                	.insn	2, 0x005c
   29f5e:	0000                	.insn	2, 0x
   29f60:	4400                	.insn	2, 0x4400
   29f62:	400e                	.insn	2, 0x400e
   29f64:	9b48                	.insn	2, 0x9b48
   29f66:	440d                	.insn	2, 0x440d
   29f68:	400e44db          	.insn	4, 0x400e44db
   29f6c:	9a48                	.insn	2, 0x9a48
   29f6e:	440c                	.insn	2, 0x440c
   29f70:	0b99                	.insn	2, 0x0b99
   29f72:	9844                	.insn	2, 0x9844
   29f74:	440a                	.insn	2, 0x440a
   29f76:	d7440997          	auipc	s3,0xd7440
   29f7a:	d9d8                	.insn	2, 0xd9d8
   29f7c:	dbda                	.insn	2, 0xdbda
   29f7e:	0e44                	.insn	2, 0x0e44
   29f80:	4840                	.insn	2, 0x4840
   29f82:	0896                	.insn	2, 0x0896
   29f84:	9544                	.insn	2, 0x9544
   29f86:	06944407          	.insn	4, 0x06944407
   29f8a:	9344                	.insn	2, 0x9344
   29f8c:	4405                	.insn	2, 0x4405
   29f8e:	0492                	.insn	2, 0x0492
   29f90:	8944                	.insn	2, 0x8944
   29f92:	02884403          	lbu	s0,40(a6)
   29f96:	8144                	.insn	2, 0x8144
   29f98:	0001                	.insn	2, 0x0001
   29f9a:	0000                	.insn	2, 0x
   29f9c:	001c                	.insn	2, 0x001c
   29f9e:	0000                	.insn	2, 0x
   29fa0:	0064                	.insn	2, 0x0064
   29fa2:	0000                	.insn	2, 0x
   29fa4:	f9d0                	.insn	2, 0xf9d0
   29fa6:	ffff                	.insn	2, 0xffff
   29fa8:	0018                	.insn	2, 0x0018
   29faa:	0000                	.insn	2, 0x
   29fac:	4400                	.insn	2, 0x4400
   29fae:	100e                	.insn	2, 0x100e
   29fb0:	8948                	.insn	2, 0x8948
   29fb2:	4404                	.insn	2, 0x4404
   29fb4:	0288                	.insn	2, 0x0288
   29fb6:	8144                	.insn	2, 0x8144
   29fb8:	0001                	.insn	2, 0x0001
   29fba:	0000                	.insn	2, 0x
   29fbc:	002c                	.insn	2, 0x002c
   29fbe:	0000                	.insn	2, 0x
   29fc0:	0000                	.insn	2, 0x
   29fc2:	0000                	.insn	2, 0x
   29fc4:	00527a03          	.insn	4, 0x00527a03
   29fc8:	7c01                	.insn	2, 0x7c01
   29fca:	0101                	.insn	2, 0x0101
   29fcc:	0e020d1b          	.insn	4, 0x0e020d1b
   29fd0:	9b40                	.insn	2, 0x9b40
   29fd2:	9a0d                	.insn	2, 0x9a0d
   29fd4:	990c                	.insn	2, 0x990c
   29fd6:	970a980b          	.insn	4, 0x970a980b
   29fda:	9609                	.insn	2, 0x9609
   29fdc:	9508                	.insn	2, 0x9508
   29fde:	93069407          	.insn	4, 0x93069407
   29fe2:	9205                	.insn	2, 0x9205
   29fe4:	8904                	.insn	2, 0x8904
   29fe6:	81028803          	lb	a6,-2032(t0)
   29fea:	0001                	.insn	2, 0x0001
   29fec:	0044                	.insn	2, 0x0044
   29fee:	0000                	.insn	2, 0x
   29ff0:	0034                	.insn	2, 0x0034
   29ff2:	0000                	.insn	2, 0x
   29ff4:	f998                	.insn	2, 0xf998
   29ff6:	ffff                	.insn	2, 0xffff
   29ff8:	0048                	.insn	2, 0x0048
   29ffa:	0000                	.insn	2, 0x
   29ffc:	4400                	.insn	2, 0x4400
   29ffe:	0edb44db          	.insn	4, 0x0edb44db
   2a002:	4430                	.insn	2, 0x4430
   2a004:	44da                	.insn	2, 0x44da
   2a006:	44d9                	.insn	2, 0x44d9
   2a008:	44d8                	.insn	2, 0x44d8
   2a00a:	d8d744d7          	.insn	4, 0xd8d744d7
   2a00e:	dad9                	.insn	2, 0xdad9
   2a010:	44200edb          	.insn	4, 0x44200edb
   2a014:	44d6                	.insn	2, 0x44d6
   2a016:	44d5                	.insn	2, 0x44d5
   2a018:	44d4                	.insn	2, 0x44d4
   2a01a:	d4d344d3          	.insn	4, 0xd4d344d3
   2a01e:	d6d5                	.insn	2, 0xd6d5
   2a020:	d9d8                	.insn	2, 0xd9d8
   2a022:	dbda                	.insn	2, 0xdbda
   2a024:	100e                	.insn	2, 0x100e
   2a026:	d244                	.insn	2, 0xd244
   2a028:	c944                	.insn	2, 0xc944
   2a02a:	c844                	.insn	2, 0xc844
   2a02c:	c144                	.insn	2, 0xc144
   2a02e:	0e44                	.insn	2, 0x0e44
   2a030:	0000                	.insn	2, 0x
	...
